(dp0
VP09603
p1
(lp2
(dp3
Vcategory
p4
VProteomics
p5
sVsubsystem
p6
VCVD
p7
sVvendor
p8
VOlink
p9
sVname
p10
VCSF_1
p11
sVmeasurement_technology
p12
Vantibody capture
p13
sVabbreviation
p14
VCSF_1
p15
sV_id
p16
VPROTE.None.CVD.CSF_1.None
p17
sa(dp18
Vcategory
p19
VProteomics
p20
sVsubsystem
p21
VInflammation
p22
sVvendor
p23
VOlink
p24
sVname
p25
VCSF_1
p26
sVmeasurement_technology
p27
Vantibody capture
p28
sVabbreviation
p29
VCSF_1
p30
sV_id
p31
VPROTE.None.Inflammation.CSF_1.None
p32
sasVP03958
p33
(lp34
(dp35
Vcategory
p36
VProteomics
p37
sVsubsystem
p38
VInflammation
p39
sVvendor
p40
VOlink
p41
sVname
p42
VADA
p43
sVmeasurement_technology
p44
Vantibody capture
p45
sVabbreviation
p46
VADA
p47
sV_id
p48
VPROTE.None.Inflammation.ADA.None
p49
sasVQ9H2A7
p50
(lp51
(dp52
Vcategory
p53
VProteomics
p54
sVsubsystem
p55
VCVD
p56
sVvendor
p57
VOlink
p58
sVname
p59
VCXCL16
p60
sVmeasurement_technology
p61
Vantibody capture
p62
sVabbreviation
p63
VCXCL16
p64
sV_id
p65
VPROTE.None.CVD.CXCL16.None
p66
sasVP05164
p67
(lp68
(dp69
Vcategory
p70
VProteomics
p71
sVsubsystem
p72
VCVD
p73
sVvendor
p74
VOlink
p75
sVname
p76
VMPO
p77
sVmeasurement_technology
p78
Vantibody capture
p79
sVabbreviation
p80
VMPO
p81
sV_id
p82
VPROTE.None.CVD.MPO.None
p83
sasVQ9HD89
p84
(lp85
(dp86
Vcategory
p87
VProteomics
p88
sVsubsystem
p89
VCVD
p90
sVvendor
p91
VOlink
p92
sVname
p93
VRETN
p94
sVmeasurement_technology
p95
Vantibody capture
p96
sVabbreviation
p97
VRETN
p98
sV_id
p99
VPROTE.None.CVD.RETN.None
p100
sasVP41159
p101
(lp102
(dp103
Vcategory
p104
VProteomics
p105
sVsubsystem
p106
VCVD
p107
sVvendor
p108
VOlink
p109
sVname
p110
VLEP
p111
sVmeasurement_technology
p112
Vantibody capture
p113
sVabbreviation
p114
VLEP
p115
sV_id
p116
VPROTE.None.CVD.LEP.None
p117
sasVP56473
p118
(lp119
(dp120
Vcategory
p121
VProteomics
p122
sVsubsystem
p123
VCVD
p124
sVvendor
p125
VOlink
p126
sVname
p127
VAGRP
p128
sVmeasurement_technology
p129
Vantibody capture
p130
sVabbreviation
p131
VAGRP
p132
sV_id
p133
VPROTE.None.CVD.AGRP.None
p134
sasVP12346
p135
(lp136
(dp137
Vcategory
p138
VProteomics
p139
sVsubsystem
p140
VCVD
p141
sVvendor
p142
VOlink
p143
sVname
p144
VTF
p145
sVmeasurement_technology
p146
Vantibody capture
p147
sVabbreviation
p148
VTF
p149
sV_id
p150
VPROTE.None.CVD.TF.None
p151
sasVP26022
p152
(lp153
(dp154
Vcategory
p155
VProteomics
p156
sVsubsystem
p157
VCVD
p158
sVvendor
p159
VOlink
p160
sVname
p161
VPTX3
p162
sVmeasurement_technology
p163
Vantibody capture
p164
sVabbreviation
p165
VPTX3
p166
sV_id
p167
VPROTE.None.CVD.PTX3.None
p168
sasVP51882
p169
(lp170
(dp171
Vcategory
p172
VProteomics
p173
sVsubsystem
p174
VInflammation
p175
sVvendor
p176
VOlink
p177
sVname
p178
VCD5
p179
sVmeasurement_technology
p180
Vantibody capture
p181
sVabbreviation
p182
VCD5
p183
sV_id
p184
VPROTE.None.Inflammation.CD5.None
p185
sasVQ03591
p186
(lp187
(dp188
Vcategory
p189
VProteomics
p190
sVsubsystem
p191
Vliver
p192
sVvendor
p193
VISB
p194
sVdescription
p195
VInvolved in complement regulation. The dimerized forms have avidity for tissue-bound complement fragments and efficiently compete with the physiological complement inhibitor CFH. Can associate with lipoproteins and may play a role in lipid metabolism.
p196
sVmeasurement_technology
p197
Vmass spectometry
p198
sVabbreviation
p199
VCFHR1
p200
sVuniprot
p201
g186
sVpeptide
p202
VITCTEEGWSPTPK
p203
sV_id
p204
VPROTE.None.liver.CFHR1.ITCTEEGWSPTPK
p205
sVname
p206
VComplement factor H-related protein 1
p207
sa(dp208
Vcategory
p209
VProteomics
p210
sVsubsystem
p211
Vliver
p212
sVvendor
p213
VISB
p214
sVdescription
p215
VInvolved in complement regulation. The dimerized forms have avidity for tissue-bound complement fragments and efficiently compete with the physiological complement inhibitor CFH. Can associate with lipoproteins and may play a role in lipid metabolism.
p216
sVmeasurement_technology
p217
Vmass spectometry
p218
sVabbreviation
p219
VCFHR1
p220
sVuniprot
p221
VQ03591
p222
sVpeptide
p223
VSTDTSCVNPPTVQNAHILSR
p224
sV_id
p225
VPROTE.None.liver.CFHR1.STDTSCVNPPTVQNAHILSR
p226
sVname
p227
VComplement factor H-related protein 1
p228
sasVP48030
p229
(lp230
(dp231
Vcategory
p232
VProteomics
p233
sVsubsystem
p234
VInflammation
p235
sVvendor
p236
VOlink
p237
sVname
p238
VTGFA
p239
sVmeasurement_technology
p240
Vantibody capture
p241
sVabbreviation
p242
VTGFA
p243
sV_id
p244
VPROTE.None.Inflammation.TGFA.None
p245
sasVO00253
p246
(lp247
g120
asVP49772
p248
(lp249
(dp250
Vcategory
p251
VProteomics
p252
sVsubsystem
p253
VInflammation
p254
sVvendor
p255
VOlink
p256
sVname
p257
VFlt3L
p258
sVmeasurement_technology
p259
Vantibody capture
p260
sVabbreviation
p261
VFlt3L
p262
sV_id
p263
VPROTE.None.Inflammation.Flt3L.None
p264
sasVP22466
p265
(lp266
(dp267
Vcategory
p268
VProteomics
p269
sVsubsystem
p270
VCVD
p271
sVvendor
p272
VOlink
p273
sVname
p274
VGAL
p275
sVmeasurement_technology
p276
Vantibody capture
p277
sVabbreviation
p278
VGAL
p279
sV_id
p280
VPROTE.None.CVD.GAL.None
p281
sasVP22792
p282
(lp283
(dp284
Vcategory
p285
VProteomics
p286
sVsubsystem
p287
Vliver
p288
sVvendor
p289
VISB
p290
sVdescription
p291
VThe 83 kDa subunit binds and stabilizes the catalytic subunit at 37 degrees Celsius and keeps it in circulation. Under some circumstances it may be an allosteric modifier of the catalytic subunit (545 aa)
p292
sVmeasurement_technology
p293
Vmass spectometry
p294
sVabbreviation
p295
VCPN2
p296
sVuniprot
p297
g282
sVpeptide
p298
VLLNIQTYCAGPAYLK
p299
sV_id
p300
VPROTE.None.liver.CPN2.LLNIQTYCAGPAYLK
p301
sVname
p302
Vcarboxypeptidase N, polypeptide 2
p303
sasVQ8R4K8
p304
(lp305
(dp306
Vcategory
p307
VProteomics
p308
sVsubsystem
p309
VCVD
p310
sVvendor
p311
VOlink
p312
sVname
p313
VPAPPA
p314
sVmeasurement_technology
p315
Vantibody capture
p316
sVabbreviation
p317
VPAPPA
p318
sV_id
p319
VPROTE.None.CVD.PAPPA.None
p320
sasVP01041
p321
(lp322
(dp323
Vcategory
p324
VProteomics
p325
sVsubsystem
p326
VCVD
p327
sVvendor
p328
VOlink
p329
sVname
p330
VCSTB
p331
sVmeasurement_technology
p332
Vantibody capture
p333
sVabbreviation
p334
VCSTB
p335
sV_id
p336
VPROTE.None.CVD.CSTB.None
p337
sasVP42703
p338
(lp339
(dp340
Vcategory
p341
VProteomics
p342
sVsubsystem
p343
VInflammation
p344
sVvendor
p345
VOlink
p346
sVname
p347
VLIF_R
p348
sVmeasurement_technology
p349
Vantibody capture
p350
sVabbreviation
p351
VLIF_R
p352
sV_id
p353
VPROTE.None.Inflammation.LIF_R.None
p354
sasVP04839
p355
(lp356
(dp357
Vcategory
p358
VProteomics
p359
sVsubsystem
p360
Vwbc
p361
sVvendor
p362
VISB
p363
sVdescription
p364
VCritical component of the membrane-bound oxidase of phagocytes that generates superoxide. It is the terminal component of a respiratory chain that transfers single electrons from cytoplasmic NADPH across the plasma membrane to molecular oxygen on the exterior. Also functions as a voltage-gated proton channel that mediates the H+ currents of resting phagocytes. It participates in the regulation of cellular pH and is blocked by zinc.
p365
sVmeasurement_technology
p366
Vmass spectometry
p367
sVabbreviation
p368
VCYBB
p369
sVuniprot
p370
g355
sVpeptide
p371
VIVGDWTEGLFNACGCDK
p372
sV_id
p373
VPROTE.None.wbc.CYBB.IVGDWTEGLFNACGCDK
p374
sVname
p375
VCytochrome b-245 heavy chain
p376
sasVP50228
p377
(lp378
(dp379
Vcategory
p380
VProteomics
p381
sVsubsystem
p382
VInflammation
p383
sVvendor
p384
VOlink
p385
sVname
p386
VCXCL5
p387
sVmeasurement_technology
p388
Vantibody capture
p389
sVabbreviation
p390
VCXCL5
p391
sV_id
p392
VPROTE.None.Inflammation.CXCL5.None
p393
sasVQ9NSA1
p394
(lp395
(dp396
Vcategory
p397
VProteomics
p398
sVsubsystem
p399
VInflammation
p400
sVvendor
p401
VOlink
p402
sVname
p403
VFGF_21
p404
sVmeasurement_technology
p405
Vantibody capture
p406
sVabbreviation
p407
VFGF_21
p408
sV_id
p409
VPROTE.None.Inflammation.FGF_21.None
p410
sasVQ9NQ30
p411
(lp412
(dp413
Vcategory
p414
VProteomics
p415
sVsubsystem
p416
VCVD
p417
sVvendor
p418
VOlink
p419
sVname
p420
VESM_1
p421
sVmeasurement_technology
p422
Vantibody capture
p423
sVabbreviation
p424
VESM_1
p425
sV_id
p426
VPROTE.None.CVD.ESM_1.None
p427
sasVO60245
p428
(lp429
(dp430
Vcategory
p431
VProteomics
p432
sVsubsystem
p433
Vheart
p434
sVvendor
p435
VISB
p436
sVdescription
p437
VCalcium ion binding
p438
sVmeasurement_technology
p439
Vmass spectometry
p440
sVabbreviation
p441
VPCDH7
p442
sVuniprot
p443
g428
sVpeptide
p444
VVATVLATDADSGK
p445
sV_id
p446
VPROTE.None.heart.PCDH7.VATVLATDADSGK
p447
sVname
p448
Vprotocadherin 7 (1200 aa)
p449
sasVQ14520
p450
(lp451
(dp452
Vcategory
p453
VProteomics
p454
sVsubsystem
p455
Vliver
p456
sVvendor
p457
VISB
p458
sVdescription
p459
VCleaves the alpha-chain at multiple sites and the beta- chain between 'Lys-53' and 'Lys-54' but not the gamma-chain of fibrinogen and therefore does not initiate the formation of the fibrin clot and does not cause the fibrinolysis directly. It does not cleave (activate) prothrombin and plasminogen but converts the inactive single chain urinary plasminogen activator (pro- urokinase) to the active two chain form. Activates coagulation factor VII (560 aa)
p460
sVmeasurement_technology
p461
Vmass spectometry
p462
sVabbreviation
p463
VHABP2
p464
sVuniprot
p465
g450
sVpeptide
p466
VLIANTLCNSR
p467
sV_id
p468
VPROTE.None.liver.HABP2.LIANTLCNSR
p469
sVname
p470
Vhyaluronan binding protein 2
p471
sa(dp472
Vcategory
p473
VProteomics
p474
sVsubsystem
p475
Vliver
p476
sVvendor
p477
VISB
p478
sVdescription
p479
VCleaves the alpha-chain at multiple sites and the beta- chain between 'Lys-53' and 'Lys-54' but not the gamma-chain of fibrinogen and therefore does not initiate the formation of the fibrin clot and does not cause the fibrinolysis directly. It does not cleave (activate) prothrombin and plasminogen but converts the inactive single chain urinary plasminogen activator (pro- urokinase) to the active two chain form. Activates coagulation factor VII (560 aa)
p480
sVmeasurement_technology
p481
Vmass spectometry
p482
sVabbreviation
p483
VHABP2
p484
sVuniprot
p485
VQ14520
p486
sVpeptide
p487
VLPGFDSCGK
p488
sV_id
p489
VPROTE.None.liver.HABP2.LPGFDSCGK
p490
sVname
p491
Vhyaluronan binding protein 2
p492
sasVP25446
p493
(lp494
(dp495
Vcategory
p496
VProteomics
p497
sVsubsystem
p498
VCVD
p499
sVvendor
p500
VOlink
p501
sVname
p502
VFAS
p503
sVmeasurement_technology
p504
Vantibody capture
p505
sVabbreviation
p506
VFAS
p507
sV_id
p508
VPROTE.None.CVD.FAS.None
p509
sasVP11226
p510
(lp511
(dp512
Vcategory
p513
VProteomics
p514
sVsubsystem
p515
Vliver
p516
sVvendor
p517
VISB
p518
sVdescription
p519
VCalcium-dependent lectin involved in innate immune defense. Binds mannose, fucose and N-acetylglucosamine on different microorganisms and activates the lectin complement pathway. Binds to late apoptotic cells, as well as to apoptotic blebs and to necrotic cells, but not to early apoptotic cells, facilitating their uptake by macrophages. May bind DNA.
p520
sVmeasurement_technology
p521
Vmass spectometry
p522
sVabbreviation
p523
VMBL2
p524
sVuniprot
p525
g510
sVpeptide
p526
VFQASVATPR
p527
sV_id
p528
VPROTE.None.liver.MBL2.FQASVATPR
p529
sVname
p530
VMannose-binding protein C
p531
sa(dp532
Vcategory
p533
VProteomics
p534
sVsubsystem
p535
Vliver
p536
sVvendor
p537
VISB
p538
sVdescription
p539
VCalcium-dependent lectin involved in innate immune defense. Binds mannose, fucose and N-acetylglucosamine on different microorganisms and activates the lectin complement pathway. Binds to late apoptotic cells, as well as to apoptotic blebs and to necrotic cells, but not to early apoptotic cells, facilitating their uptake by macrophages. May bind DNA.
p540
sVmeasurement_technology
p541
Vmass spectometry
p542
sVabbreviation
p543
VMBL2
p544
sVuniprot
p545
VP11226
p546
sVpeptide
p547
VTEGQFVDLTGNR
p548
sV_id
p549
VPROTE.None.liver.MBL2.TEGQFVDLTGNR
p550
sVname
p551
VMannose-binding protein C
p552
sasVP35446
p553
(lp554
(dp555
Vcategory
p556
VProteomics
p557
sVsubsystem
p558
VCVD
p559
sVvendor
p560
VOlink
p561
sVname
p562
VSPON1
p563
sVmeasurement_technology
p564
Vantibody capture
p565
sVabbreviation
p566
VSPON1
p567
sV_id
p568
VPROTE.None.CVD.SPON1.None
p569
sasVP00747
p570
(lp571
(dp572
Vcategory
p573
VProteomics
p574
sVsubsystem
p575
Vliver
p576
sVvendor
p577
VISB
p578
sVdescription
p579
VPlasmin dissolves the fibrin of blood clots and acts as a proteolytic factor in a variety of other processes including embryonic development, tissue remodeling, tumor invasion, and inflammation. In ovulation, weakens the walls of the Graafian follicle. It activates the urokinase-type plasminogen activator, collagenases and several complement zymogens, such as C1 and C5. Cleavage of fibronectin and laminin leads to cell detachment and apoptosis. Also cleaves fibrin, thrombospondin and von Willebrand factor. Its role in tissue remodeling and tumor invasion may be modulated by CSPG4. Binds to cells.
p580
sVmeasurement_technology
p581
Vmass spectometry
p582
sVabbreviation
p583
VPLG
p584
sVuniprot
p585
g570
sVpeptide
p586
VEAQLPVIENK
p587
sV_id
p588
VPROTE.None.liver.PLG.EAQLPVIENK
p589
sVname
p590
VPlasminogen
p591
sa(dp592
Vcategory
p593
VProteomics
p594
sVsubsystem
p595
Vliver
p596
sVvendor
p597
VISB
p598
sVdescription
p599
VPlasmin dissolves the fibrin of blood clots and acts as a proteolytic factor in a variety of other processes including embryonic development, tissue remodeling, tumor invasion, and inflammation. In ovulation, weakens the walls of the Graafian follicle. It activates the urokinase-type plasminogen activator, collagenases and several complement zymogens, such as C1 and C5. Cleavage of fibronectin and laminin leads to cell detachment and apoptosis. Also cleaves fibrin, thrombospondin and von Willebrand factor. Its role in tissue remodeling and tumor invasion may be modulated by CSPG4. Binds to cells.
p600
sVmeasurement_technology
p601
Vmass spectometry
p602
sVabbreviation
p603
VPLG
p604
sVuniprot
p605
VP00747
p606
sVpeptide
p607
VHSIFTPETNPR
p608
sV_id
p609
VPROTE.None.liver.PLG.HSIFTPETNPR
p610
sVname
p611
VPlasminogen
p612
sasVP07141
p613
(lp614
g3
ag18
asVQ96KN2
p615
(lp616
(dp617
Vcategory
p618
VProteomics
p619
sVsubsystem
p620
Vbrain
p621
sVvendor
p622
VISB
p623
sVname
p624
Vcarnosine dipeptidase 1 (metallopeptidase M20 family) (507 aa)
p625
sVmeasurement_technology
p626
Vmass spectometry
p627
sVabbreviation
p628
VCNDP1
p629
sVuniprot
p630
g615
sVpeptide
p631
VALEQDLPVNIK
p632
sV_id
p633
VPROTE.None.brain.CNDP1.ALEQDLPVNIK
p634
sa(dp635
Vcategory
p636
VProteomics
p637
sVsubsystem
p638
Vbrain
p639
sVvendor
p640
VISB
p641
sVname
p642
Vcarnosine dipeptidase 1 (metallopeptidase M20 family) (507 aa)
p643
sVmeasurement_technology
p644
Vmass spectometry
p645
sVabbreviation
p646
VCNDP1
p647
sVuniprot
p648
VQ96KN2
p649
sVpeptide
p650
VEWVAIESDSVQPVPR
p651
sV_id
p652
VPROTE.None.brain.CNDP1.EWVAIESDSVQPVPR
p653
sasVQ925S4
p654
(lp655
(dp656
Vcategory
p657
VProteomics
p658
sVsubsystem
p659
VInflammation
p660
sVvendor
p661
VOlink
p662
sVname
p663
VIL_24
p664
sVmeasurement_technology
p665
Vantibody capture
p666
sVabbreviation
p667
VIL_24
p668
sV_id
p669
VPROTE.None.Inflammation.IL_24.None
p670
sasVQ9HCB6
p671
(lp672
g555
asVQ00731
p673
(lp674
(dp675
Vcategory
p676
VProteomics
p677
sVsubsystem
p678
VCVD
p679
sVvendor
p680
VOlink
p681
sVname
p682
VVEGF_A
p683
sVmeasurement_technology
p684
Vantibody capture
p685
sVabbreviation
p686
VVEGF_A
p687
sV_id
p688
VPROTE.None.CVD.VEGF_A.None
p689
sa(dp690
Vcategory
p691
VProteomics
p692
sVsubsystem
p693
VInflammation
p694
sVvendor
p695
VOlink
p696
sVname
p697
VVEGF_A
p698
sVmeasurement_technology
p699
Vantibody capture
p700
sVabbreviation
p701
VVEGF_A
p702
sV_id
p703
VPROTE.None.Inflammation.VEGF_A.None
p704
sasVQ9WUD9
p705
(lp706
(dp707
Vcategory
p708
VProteomics
p709
sVsubsystem
p710
VCVD
p711
sVvendor
p712
VOlink
p713
sVname
p714
VSRC
p715
sVmeasurement_technology
p716
Vantibody capture
p717
sVabbreviation
p718
VSRC
p719
sV_id
p720
VPROTE.None.CVD.SRC.None
p721
sasVO35625
p722
(lp723
(dp724
Vcategory
p725
VProteomics
p726
sVsubsystem
p727
VInflammation
p728
sVvendor
p729
VOlink
p730
sVname
p731
VAXIN1
p732
sVmeasurement_technology
p733
Vantibody capture
p734
sVabbreviation
p735
VAXIN1
p736
sV_id
p737
VPROTE.None.Inflammation.AXIN1.None
p738
sasVO54908
p739
(lp740
(dp741
Vcategory
p742
VProteomics
p743
sVsubsystem
p744
VCVD
p745
sVvendor
p746
VOlink
p747
sVname
p748
VDkk_1
p749
sVmeasurement_technology
p750
Vantibody capture
p751
sVabbreviation
p752
VDkk_1
p753
sV_id
p754
VPROTE.None.CVD.Dkk_1.None
p755
sasVP12034
p756
(lp757
(dp758
Vcategory
p759
VProteomics
p760
sVsubsystem
p761
VInflammation
p762
sVvendor
p763
VOlink
p764
sVname
p765
VFGF_5
p766
sVmeasurement_technology
p767
Vantibody capture
p768
sVabbreviation
p769
VFGF_5
p770
sV_id
p771
VPROTE.None.Inflammation.FGF_5.None
p772
sasVP48973
p773
(lp774
(dp775
Vcategory
p776
VProteomics
p777
sVsubsystem
p778
VInflammation
p779
sVvendor
p780
VOlink
p781
sVname
p782
VCXCL10
p783
sVmeasurement_technology
p784
Vantibody capture
p785
sVabbreviation
p786
VCXCL10
p787
sV_id
p788
VPROTE.None.Inflammation.CXCL10.None
p789
sasVP97682
p790
(lp791
g413
asVQ9JI24
p792
(lp793
g656
asVP22301
p794
(lp795
(dp796
Vcategory
p797
VProteomics
p798
sVsubsystem
p799
VInflammation
p800
sVvendor
p801
VOlink
p802
sVname
p803
VIL_10
p804
sVmeasurement_technology
p805
Vantibody capture
p806
sVabbreviation
p807
VIL_10
p808
sV_id
p809
VPROTE.None.Inflammation.IL_10.None
p810
sasVP04080
p811
(lp812
g323
asVQ08334
p813
(lp814
(dp815
Vcategory
p816
VProteomics
p817
sVsubsystem
p818
VInflammation
p819
sVvendor
p820
VOlink
p821
sVname
p822
VIL_10RB
p823
sVmeasurement_technology
p824
Vantibody capture
p825
sVabbreviation
p826
VIL_10RB
p827
sV_id
p828
VPROTE.None.Inflammation.IL_10RB.None
p829
sasVP26896
p830
(lp831
(dp832
Vcategory
p833
VProteomics
p834
sVsubsystem
p835
VInflammation
p836
sVvendor
p837
VOlink
p838
sVname
p839
VIL_2RB
p840
sVmeasurement_technology
p841
Vantibody capture
p842
sVabbreviation
p843
VIL_2RB
p844
sV_id
p845
VPROTE.None.Inflammation.IL_2RB.None
p846
sasVP97463
p847
(lp848
(dp849
Vcategory
p850
VProteomics
p851
sVsubsystem
p852
VInflammation
p853
sVvendor
p854
VOlink
p855
sVname
p856
VNRTN
p857
sVmeasurement_technology
p858
Vantibody capture
p859
sVabbreviation
p860
VNRTN
p861
sV_id
p862
VPROTE.None.Inflammation.NRTN.None
p863
sasVP43432
p864
(lp865
(dp866
Vcategory
p867
VProteomics
p868
sVsubsystem
p869
VInflammation
p870
sVvendor
p871
VOlink
p872
sVname
p873
VIL_12B
p874
sVmeasurement_technology
p875
Vantibody capture
p876
sVabbreviation
p877
VIL_12B
p878
sV_id
p879
VPROTE.None.Inflammation.IL_12B.None
p880
sasVP04247
p881
(lp882
(dp883
Vcategory
p884
VProteomics
p885
sVsubsystem
p886
VCVD
p887
sVvendor
p888
VOlink
p889
sVname
p890
VMB
p891
sVmeasurement_technology
p892
Vantibody capture
p893
sVabbreviation
p894
VMB
p895
sV_id
p896
VPROTE.None.CVD.MB.None
p897
sasVQ13291
p898
(lp899
(dp900
Vcategory
p901
VProteomics
p902
sVsubsystem
p903
VInflammation
p904
sVvendor
p905
VOlink
p906
sVname
p907
VSLAMF1
p908
sVmeasurement_technology
p909
Vantibody capture
p910
sVabbreviation
p911
VSLAMF1
p912
sV_id
p913
VPROTE.None.Inflammation.SLAMF1.None
p914
sasVP02774
p915
(lp916
(dp917
Vcategory
p918
VProteomics
p919
sVsubsystem
p920
Vliver
p921
sVvendor
p922
VISB
p923
sVdescription
p924
V Multifunctional protein found in plasma, ascitic fluid, cerebrospinal fluid, and urine and on the surface of many cell types. In plasma, it carries the vitamin D sterols and prevents polymerization of actin by binding its monomers. DBP associates with membrane-bound immunoglobulin on the surface of B-lymphocytes and with IgG Fc receptor on the membranes of T-lymphocytes (474 aa)
p925
sVmeasurement_technology
p926
Vmass spectometry
p927
sVabbreviation
p928
VGC
p929
sVuniprot
p930
g915
sVpeptide
p931
VELSSFIDK
p932
sV_id
p933
VPROTE.None.liver.GC.ELSSFIDK
p934
sVname
p935
Vgroup-specific component (vitamin D binding protein)
p936
sa(dp937
Vcategory
p938
VProteomics
p939
sVsubsystem
p940
Vliver
p941
sVvendor
p942
VISB
p943
sVdescription
p944
V Multifunctional protein found in plasma, ascitic fluid, cerebrospinal fluid, and urine and on the surface of many cell types. In plasma, it carries the vitamin D sterols and prevents polymerization of actin by binding its monomers. DBP associates with membrane-bound immunoglobulin on the surface of B-lymphocytes and with IgG Fc receptor on the membranes of T-lymphocytes (474 aa)
p945
sVmeasurement_technology
p946
Vmass spectometry
p947
sVabbreviation
p948
VGC
p949
sVuniprot
p950
VP02774
p951
sVpeptide
p952
VHLSLLTTLSNR
p953
sV_id
p954
VPROTE.None.liver.GC.HLSLLTTLSNR
p955
sVname
p956
Vgroup-specific component (vitamin D binding protein)
p957
sasVP02775
p958
(lp959
(dp960
Vcategory
p961
VProteomics
p962
sVsubsystem
p963
Vwbc
p964
sVvendor
p965
VISB
p966
sVdescription
p967
VLA-PF4 stimulates DNA synthesis, mitosis, glycolysis, intracellular cAMP accumulation, prostaglandin E2 secretion, and synthesis of hyaluronic acid and sulfated glycosaminoglycan. It also stimulates the formation and secretion of plasminogen activator by human synovial cells. NAP-2 is a ligand for CXCR1 and CXCR2, and NAP-2, NAP-2(73), NAP-2(74), NAP-2(1-66), and most potent NAP-2(1-63) are chemoattractants and activators for neutrophils. TC-1 and TC-2 are antibacterial proteins, in vitro released from activated platelet alpha-granules. CTAP-III(1-81) is more potent than CTAP-III desensitize chemokine-induced neutrophil activation.
p968
sVmeasurement_technology
p969
Vmass spectometry
p970
sVabbreviation
p971
VPPBP
p972
sVuniprot
p973
g958
sVpeptide
p974
VGTHCNQVEVIATLK
p975
sV_id
p976
VPROTE.None.wbc.PPBP.GTHCNQVEVIATLK
p977
sVname
p978
VPlatelet basic protein
p979
sa(dp980
Vcategory
p981
VProteomics
p982
sVsubsystem
p983
Vwbc
p984
sVvendor
p985
VISB
p986
sVdescription
p987
VLA-PF4 stimulates DNA synthesis, mitosis, glycolysis, intracellular cAMP accumulation, prostaglandin E2 secretion, and synthesis of hyaluronic acid and sulfated glycosaminoglycan. It also stimulates the formation and secretion of plasminogen activator by human synovial cells. NAP-2 is a ligand for CXCR1 and CXCR2, and NAP-2, NAP-2(73), NAP-2(74), NAP-2(1-66), and most potent NAP-2(1-63) are chemoattractants and activators for neutrophils. TC-1 and TC-2 are antibacterial proteins, in vitro released from activated platelet alpha-granules. CTAP-III(1-81) is more potent than CTAP-III desensitize chemokine-induced neutrophil activation.
p988
sVmeasurement_technology
p989
Vmass spectometry
p990
sVabbreviation
p991
VPPBP
p992
sVuniprot
p993
VP02775
p994
sVpeptide
p995
VICLDPDAPR
p996
sV_id
p997
VPROTE.None.wbc.PPBP.ICLDPDAPR
p998
sVname
p999
VPlatelet basic protein
p1000
sasVQ8N6P7
p1001
(lp1002
(dp1003
Vcategory
p1004
VProteomics
p1005
sVsubsystem
p1006
VInflammation
p1007
sVvendor
p1008
VOlink
p1009
sVname
p1010
VIL_22_RA1
p1011
sVmeasurement_technology
p1012
Vantibody capture
p1013
sVabbreviation
p1014
VIL_22_RA1
p1015
sV_id
p1016
VPROTE.None.Inflammation.IL_22_RA1.None
p1017
sasVP18893
p1018
(lp1019
g796
asVP17108
p1020
(lp1021
(dp1022
Vcategory
p1023
VProteomics
p1024
sVsubsystem
p1025
VInflammation
p1026
sVvendor
p1027
VOlink
p1028
sVname
p1029
VIL_2
p1030
sVmeasurement_technology
p1031
Vantibody capture
p1032
sVabbreviation
p1033
VIL_2
p1034
sV_id
p1035
VPROTE.None.Inflammation.IL_2.None
p1036
sasVP00797
p1037
(lp1038
(dp1039
Vcategory
p1040
VProteomics
p1041
sVsubsystem
p1042
VCVD
p1043
sVvendor
p1044
VOlink
p1045
sVname
p1046
VREN
p1047
sVmeasurement_technology
p1048
Vantibody capture
p1049
sVabbreviation
p1050
VREN
p1051
sV_id
p1052
VPROTE.None.CVD.REN.None
p1053
sasVP28862
p1054
(lp1055
(dp1056
Vcategory
p1057
VProteomics
p1058
sVsubsystem
p1059
VCVD
p1060
sVvendor
p1061
VOlink
p1062
sVname
p1063
VMMP_3
p1064
sVmeasurement_technology
p1065
Vantibody capture
p1066
sVabbreviation
p1067
VMMP_3
p1068
sV_id
p1069
VPROTE.None.CVD.MMP_3.None
p1070
sasVP03956
p1071
(lp1072
(dp1073
Vcategory
p1074
VProteomics
p1075
sVsubsystem
p1076
VCVD
p1077
sVvendor
p1078
VOlink
p1079
sVname
p1080
VMMP_1
p1081
sVmeasurement_technology
p1082
Vantibody capture
p1083
sVabbreviation
p1084
VMMP_1
p1085
sV_id
p1086
VPROTE.None.CVD.MMP_1.None
p1087
sa(dp1088
Vcategory
p1089
VProteomics
p1090
sVsubsystem
p1091
VInflammation
p1092
sVvendor
p1093
VOlink
p1094
sVname
p1095
VMMP_1
p1096
sVmeasurement_technology
p1097
Vantibody capture
p1098
sVabbreviation
p1099
VMMP_1
p1100
sV_id
p1101
VPROTE.None.Inflammation.MMP_1.None
p1102
sasVP02787
p1103
(lp1104
g137
asVQ8NFT8
p1105
(lp1106
(dp1107
Vcategory
p1108
VProteomics
p1109
sVsubsystem
p1110
VInflammation
p1111
sVvendor
p1112
VOlink
p1113
sVname
p1114
VDNER
p1115
sVmeasurement_technology
p1116
Vantibody capture
p1117
sVabbreviation
p1118
VDNER
p1119
sV_id
p1120
VPROTE.None.Inflammation.DNER.None
p1121
sasVQ9JLM2
p1122
(lp1123
(dp1124
Vcategory
p1125
VProteomics
p1126
sVsubsystem
p1127
VInflammation
p1128
sVvendor
p1129
VOlink
p1130
sVname
p1131
VCD244
p1132
sVmeasurement_technology
p1133
Vantibody capture
p1134
sVabbreviation
p1135
VCD244
p1136
sV_id
p1137
VPROTE.None.Inflammation.CD244.None
p1138
sasVQ06186
p1139
(lp1140
(dp1141
Vcategory
p1142
VProteomics
p1143
sVsubsystem
p1144
VCVD
p1145
sVvendor
p1146
VOlink
p1147
sVname
p1148
VHB_EGF
p1149
sVmeasurement_technology
p1150
Vantibody capture
p1151
sVabbreviation
p1152
VHB_EGF
p1153
sV_id
p1154
VPROTE.None.CVD.HB_EGF.None
p1155
sasVP48807
p1156
(lp1157
g758
asVP08254
p1158
(lp1159
g1056
asVQ8VDQ8
p1160
(lp1161
(dp1162
Vcategory
p1163
VProteomics
p1164
sVsubsystem
p1165
VCVD
p1166
sVvendor
p1167
VOlink
p1168
sVname
p1169
VSIRT2
p1170
sVmeasurement_technology
p1171
Vantibody capture
p1172
sVabbreviation
p1173
VSIRT2
p1174
sV_id
p1175
VPROTE.None.CVD.SIRT2.None
p1176
sa(dp1177
Vcategory
p1178
VProteomics
p1179
sVsubsystem
p1180
VInflammation
p1181
sVvendor
p1182
VOlink
p1183
sVname
p1184
VSIRT2
p1185
sVmeasurement_technology
p1186
Vantibody capture
p1187
sVabbreviation
p1188
VSIRT2
p1189
sV_id
p1190
VPROTE.None.Inflammation.SIRT2.None
p1191
sasVQ8VCC9
p1192
(lp1193
g555
asVP04004
p1194
(lp1195
(dp1196
Vcategory
p1197
VProteomics
p1198
sVsubsystem
p1199
Vliver
p1200
sVvendor
p1201
VISB
p1202
sVdescription
p1203
VVitronectin is a cell adhesion and spreading factor found in serum and tissues. Vitronectin interact with glycosaminoglycans and proteoglycans. Is recognized by certain members of the integrin family and serves as a cell-to-substrate adhesion molecule. Inhibitor of the membrane-damaging effect of the terminal cytolytic complement pathway (478 aa)
p1204
sVmeasurement_technology
p1205
Vmass spectometry
p1206
sVabbreviation
p1207
VVTN
p1208
sVuniprot
p1209
g1194
sVpeptide
p1210
VDVWGIEGPIDAAFTR
p1211
sV_id
p1212
VPROTE.None.liver.VTN.DVWGIEGPIDAAFTR
p1213
sVname
p1214
Vvitronectin
p1215
sa(dp1216
Vcategory
p1217
VProteomics
p1218
sVsubsystem
p1219
Vliver
p1220
sVvendor
p1221
VISB
p1222
sVdescription
p1223
VVitronectin is a cell adhesion and spreading factor found in serum and tissues. Vitronectin interact with glycosaminoglycans and proteoglycans. Is recognized by certain members of the integrin family and serves as a cell-to-substrate adhesion molecule. Inhibitor of the membrane-damaging effect of the terminal cytolytic complement pathway (478 aa)
p1224
sVmeasurement_technology
p1225
Vmass spectometry
p1226
sVabbreviation
p1227
VVTN
p1228
sVuniprot
p1229
VP04004
p1230
sVpeptide
p1231
VVDTVDPPYPR
p1232
sV_id
p1233
VPROTE.None.liver.VTN.VDTVDPPYPR
p1234
sVname
p1235
Vvitronectin
p1236
sasVP07152
p1237
(lp1238
(dp1239
Vcategory
p1240
VProteomics
p1241
sVsubsystem
p1242
VCVD
p1243
sVvendor
p1244
VOlink
p1245
sVname
p1246
VMMP_10
p1247
sVmeasurement_technology
p1248
Vantibody capture
p1249
sVabbreviation
p1250
VMMP_10
p1251
sV_id
p1252
VPROTE.None.CVD.MMP_10.None
p1253
sa(dp1254
Vcategory
p1255
VProteomics
p1256
sVsubsystem
p1257
VInflammation
p1258
sVvendor
p1259
VOlink
p1260
sVname
p1261
VMMP_10
p1262
sVmeasurement_technology
p1263
Vantibody capture
p1264
sVabbreviation
p1265
VMMP_10
p1266
sV_id
p1267
VPROTE.None.Inflammation.MMP_10.None
p1268
sasVQ99731
p1269
(lp1270
(dp1271
Vcategory
p1272
VProteomics
p1273
sVsubsystem
p1274
VInflammation
p1275
sVvendor
p1276
VOlink
p1277
sVname
p1278
VCCL19
p1279
sVmeasurement_technology
p1280
Vantibody capture
p1281
sVabbreviation
p1282
VCCL19
p1283
sV_id
p1284
VPROTE.None.Inflammation.CCL19.None
p1285
sasVP60568
p1286
(lp1287
g1022
asVQ65Z15
p1288
(lp1289
(dp1290
Vcategory
p1291
VProteomics
p1292
sVsubsystem
p1293
VInflammation
p1294
sVvendor
p1295
VOlink
p1296
sVname
p1297
VOSM
p1298
sVmeasurement_technology
p1299
Vantibody capture
p1300
sVabbreviation
p1301
VOSM
p1302
sV_id
p1303
VPROTE.None.Inflammation.OSM.None
p1304
sasVP13591
p1305
(lp1306
(dp1307
Vcategory
p1308
VProteomics
p1309
sVsubsystem
p1310
Vbrain
p1311
sVvendor
p1312
VISB
p1313
sVdescription
p1314
V This protein is a cell adhesion molecule involved in neuron-neuron adhesion, neurite fasciculation, outgrowth of neurites, etc (857 aa)
p1315
sVmeasurement_technology
p1316
Vmass spectometry
p1317
sVabbreviation
p1318
VNCAM1
p1319
sVuniprot
p1320
g1305
sVpeptide
p1321
VALSSEWKPEIR
p1322
sV_id
p1323
VPROTE.None.brain.NCAM1.ALSSEWKPEIR
p1324
sVname
p1325
Vneural cell adhesion molecule 1
p1326
sasVP01375
p1327
(lp1328
(dp1329
Vcategory
p1330
VProteomics
p1331
sVsubsystem
p1332
VInflammation
p1333
sVvendor
p1334
VOlink
p1335
sVname
p1336
VTNF
p1337
sVmeasurement_technology
p1338
Vantibody capture
p1339
sVabbreviation
p1340
VTNF
p1341
sV_id
p1342
VPROTE.None.Inflammation.TNF.None
p1343
sasVO70535
p1344
(lp1345
g340
asVQ14790
p1346
(lp1347
(dp1348
Vcategory
p1349
VProteomics
p1350
sVsubsystem
p1351
VCVD
p1352
sVvendor
p1353
VOlink
p1354
sVname
p1355
VCASP_8
p1356
sVmeasurement_technology
p1357
Vantibody capture
p1358
sVabbreviation
p1359
VCASP_8
p1360
sV_id
p1361
VPROTE.None.CVD.CASP_8.None
p1362
sa(dp1363
Vcategory
p1364
VProteomics
p1365
sVsubsystem
p1366
VInflammation
p1367
sVvendor
p1368
VOlink
p1369
sVname
p1370
VCASP_8
p1371
sVmeasurement_technology
p1372
Vantibody capture
p1373
sVabbreviation
p1374
VCASP_8
p1375
sV_id
p1376
VPROTE.None.Inflammation.CASP_8.None
p1377
sasVP10168
p1378
(lp1379
(dp1380
Vcategory
p1381
VProteomics
p1382
sVsubsystem
p1383
VInflammation
p1384
sVvendor
p1385
VOlink
p1386
sVname
p1387
VIL_7
p1388
sVmeasurement_technology
p1389
Vantibody capture
p1390
sVabbreviation
p1391
VIL_7
p1392
sV_id
p1393
VPROTE.None.Inflammation.IL_7.None
p1394
sasVP05112
p1395
(lp1396
(dp1397
Vcategory
p1398
VProteomics
p1399
sVsubsystem
p1400
VCVD
p1401
sVvendor
p1402
VOlink
p1403
sVname
p1404
VIL_4
p1405
sVmeasurement_technology
p1406
Vantibody capture
p1407
sVabbreviation
p1408
VIL_4
p1409
sV_id
p1410
VPROTE.None.CVD.IL_4.None
p1411
sa(dp1412
Vcategory
p1413
VProteomics
p1414
sVsubsystem
p1415
VInflammation
p1416
sVvendor
p1417
VOlink
p1418
sVname
p1419
VIL_4
p1420
sVmeasurement_technology
p1421
Vantibody capture
p1422
sVabbreviation
p1423
VIL_4
p1424
sV_id
p1425
VPROTE.None.Inflammation.IL_4.None
p1426
sasVP14210
p1427
(lp1428
(dp1429
Vcategory
p1430
VProteomics
p1431
sVsubsystem
p1432
VCVD
p1433
sVvendor
p1434
VOlink
p1435
sVname
p1436
VHGF
p1437
sVmeasurement_technology
p1438
Vantibody capture
p1439
sVabbreviation
p1440
VHGF
p1441
sV_id
p1442
VPROTE.None.CVD.HGF.None
p1443
sa(dp1444
Vcategory
p1445
VProteomics
p1446
sVsubsystem
p1447
VInflammation
p1448
sVvendor
p1449
VOlink
p1450
sVname
p1451
VHGF
p1452
sVmeasurement_technology
p1453
Vantibody capture
p1454
sVabbreviation
p1455
VHGF
p1456
sV_id
p1457
VPROTE.None.Inflammation.HGF.None
p1458
sasVP15692
p1459
(lp1460
g675
ag690
asVO94907
p1461
(lp1462
g741
asVQ62426
p1463
(lp1464
g323
asVQ9QYH9
p1465
(lp1466
(dp1467
Vcategory
p1468
VProteomics
p1469
sVsubsystem
p1470
VCVD
p1471
sVvendor
p1472
VOlink
p1473
sVname
p1474
VTNFSF14
p1475
sVmeasurement_technology
p1476
Vantibody capture
p1477
sVabbreviation
p1478
VTNFSF14
p1479
sV_id
p1480
VPROTE.None.CVD.TNFSF14.None
p1481
sa(dp1482
Vcategory
p1483
VProteomics
p1484
sVsubsystem
p1485
VInflammation
p1486
sVvendor
p1487
VOlink
p1488
sVname
p1489
VTNFSF14
p1490
sVmeasurement_technology
p1491
Vantibody capture
p1492
sVabbreviation
p1493
VTNFSF14
p1494
sV_id
p1495
VPROTE.None.Inflammation.TNFSF14.None
p1496
sasVP30203
p1497
(lp1498
(dp1499
Vcategory
p1500
VProteomics
p1501
sVsubsystem
p1502
VInflammation
p1503
sVvendor
p1504
VOlink
p1505
sVname
p1506
VCD6
p1507
sVmeasurement_technology
p1508
Vantibody capture
p1509
sVabbreviation
p1510
VCD6
p1511
sV_id
p1512
VPROTE.None.Inflammation.CD6.None
p1513
sasVP05062
p1514
(lp1515
(dp1516
Vcategory
p1517
VProteomics
p1518
sVsubsystem
p1519
Vliver
p1520
sVvendor
p1521
VISB
p1522
sVname
p1523
VFructose-bisphosphate aldolase B
p1524
sVmeasurement_technology
p1525
Vmass spectometry
p1526
sVabbreviation
p1527
VALDOB
p1528
sVuniprot
p1529
g1514
sVpeptide
p1530
VALQASALAAWGGK
p1531
sV_id
p1532
VPROTE.None.liver.ALDOB.ALQASALAAWGGK
p1533
sasVQ96PD5
p1534
(lp1535
(dp1536
Vcategory
p1537
VProteomics
p1538
sVsubsystem
p1539
Vliver
p1540
sVvendor
p1541
VISB
p1542
sVdescription
p1543
VMay play a scavenger role by digesting biologically active peptidoglycan (PGN) into biologically inactive fragments. Has no direct bacteriolytic activity.
p1544
sVmeasurement_technology
p1545
Vmass spectometry
p1546
sVabbreviation
p1547
VPGLYRP2
p1548
sVuniprot
p1549
g1534
sVpeptide
p1550
VEFTEAFLGCPAIHPR
p1551
sV_id
p1552
VPROTE.None.liver.PGLYRP2.EFTEAFLGCPAIHPR
p1553
sVname
p1554
VN-acetylmuramoyl-L-alanine amidase
p1555
sa(dp1556
Vcategory
p1557
VProteomics
p1558
sVsubsystem
p1559
Vliver
p1560
sVvendor
p1561
VISB
p1562
sVdescription
p1563
VMay play a scavenger role by digesting biologically active peptidoglycan (PGN) into biologically inactive fragments. Has no direct bacteriolytic activity.
p1564
sVmeasurement_technology
p1565
Vmass spectometry
p1566
sVabbreviation
p1567
VPGLYRP2
p1568
sVuniprot
p1569
VQ96PD5
p1570
sVpeptide
p1571
VGCPDVQASLPDAK
p1572
sV_id
p1573
VPROTE.None.liver.PGLYRP2.GCPDVQASLPDAK
p1574
sVname
p1575
VN-acetylmuramoyl-L-alanine amidase
p1576
sasVQ99784
p1577
(lp1578
(dp1579
Vcategory
p1580
VProteomics
p1581
sVsubsystem
p1582
Vbrain
p1583
sVvendor
p1584
VISB
p1585
sVdescription
p1586
VSeems to play an important role in regulating the production of neural crest cells by the neural tube (By similarity) (467 aa)
p1587
sVmeasurement_technology
p1588
Vmass spectometry
p1589
sVabbreviation
p1590
VOLFM1
p1591
sVuniprot
p1592
g1577
sVpeptide
p1593
VLTGISDPVTVK
p1594
sV_id
p1595
VPROTE.None.brain.OLFM1.LTGISDPVTVK
p1596
sVname
p1597
Volfactomedin 1
p1598
sasVQ3SWT0
p1599
(lp1600
(dp1601
Vcategory
p1602
VProteomics
p1603
sVsubsystem
p1604
VCVD
p1605
sVvendor
p1606
VOlink
p1607
sVname
p1608
VPECAM_1
p1609
sVmeasurement_technology
p1610
Vantibody capture
p1611
sVabbreviation
p1612
VPECAM_1
p1613
sV_id
p1614
VPROTE.None.CVD.PECAM_1.None
p1615
sasVQ9Z0J6
p1616
(lp1617
(dp1618
Vcategory
p1619
VProteomics
p1620
sVsubsystem
p1621
VCVD
p1622
sVvendor
p1623
VOlink
p1624
sVname
p1625
VGDF_15
p1626
sVmeasurement_technology
p1627
Vantibody capture
p1628
sVabbreviation
p1629
VGDF_15
p1630
sV_id
p1631
VPROTE.None.CVD.GDF_15.None
p1632
sasVQ9Z0J7
p1633
(lp1634
g1618
asVP29456
p1635
(lp1636
g796
asVQ9NYY1
p1637
(lp1638
(dp1639
Vcategory
p1640
VProteomics
p1641
sVsubsystem
p1642
VInflammation
p1643
sVvendor
p1644
VOlink
p1645
sVname
p1646
VIL_20
p1647
sVmeasurement_technology
p1648
Vantibody capture
p1649
sVabbreviation
p1650
VIL_20
p1651
sV_id
p1652
VPROTE.None.Inflammation.IL_20.None
p1653
sasVP21237
p1654
(lp1655
(dp1656
Vcategory
p1657
VProteomics
p1658
sVsubsystem
p1659
VInflammation
p1660
sVvendor
p1661
VOlink
p1662
sVname
p1663
VBDNF
p1664
sVmeasurement_technology
p1665
Vantibody capture
p1666
sVabbreviation
p1667
VBDNF
p1668
sV_id
p1669
VPROTE.None.Inflammation.BDNF.None
p1670
sasVQ63341
p1671
(lp1672
(dp1673
Vcategory
p1674
VProteomics
p1675
sVsubsystem
p1676
VCVD
p1677
sVvendor
p1678
VOlink
p1679
sVname
p1680
VMMP_12
p1681
sVmeasurement_technology
p1682
Vantibody capture
p1683
sVabbreviation
p1684
VMMP_12
p1685
sV_id
p1686
VPROTE.None.CVD.MMP_12.None
p1687
sasVP10147
p1688
(lp1689
(dp1690
Vcategory
p1691
VProteomics
p1692
sVsubsystem
p1693
VCVD
p1694
sVvendor
p1695
VOlink
p1696
sVname
p1697
VCCL3
p1698
sVmeasurement_technology
p1699
Vantibody capture
p1700
sVabbreviation
p1701
VCCL3
p1702
sV_id
p1703
VPROTE.None.CVD.CCL3.None
p1704
sasVP97884
p1705
(lp1706
(dp1707
Vcategory
p1708
VProteomics
p1709
sVsubsystem
p1710
VCVD
p1711
sVvendor
p1712
VOlink
p1713
sVname
p1714
VCCL20
p1715
sVmeasurement_technology
p1716
Vantibody capture
p1717
sVabbreviation
p1718
VCCL20
p1719
sV_id
p1720
VPROTE.None.CVD.CCL20.None
p1721
sa(dp1722
Vcategory
p1723
VProteomics
p1724
sVsubsystem
p1725
VInflammation
p1726
sVvendor
p1727
VOlink
p1728
sVname
p1729
VCCL20
p1730
sVmeasurement_technology
p1731
Vantibody capture
p1732
sVabbreviation
p1733
VCCL20
p1734
sV_id
p1735
VPROTE.None.Inflammation.CCL20.None
p1736
sasVP97885
p1737
(lp1738
(dp1739
Vcategory
p1740
VProteomics
p1741
sVsubsystem
p1742
VCVD
p1743
sVvendor
p1744
VOlink
p1745
sVname
p1746
VCXCL6
p1747
sVmeasurement_technology
p1748
Vantibody capture
p1749
sVabbreviation
p1750
VCXCL6
p1751
sV_id
p1752
VPROTE.None.CVD.CXCL6.None
p1753
sa(dp1754
Vcategory
p1755
VProteomics
p1756
sVsubsystem
p1757
VInflammation
p1758
sVvendor
p1759
VOlink
p1760
sVname
p1761
VCXCL6
p1762
sVmeasurement_technology
p1763
Vantibody capture
p1764
sVabbreviation
p1765
VCXCL6
p1766
sV_id
p1767
VPROTE.None.Inflammation.CXCL6.None
p1768
sasVQ13261
p1769
(lp1770
(dp1771
Vcategory
p1772
VProteomics
p1773
sVsubsystem
p1774
VInflammation
p1775
sVvendor
p1776
VOlink
p1777
sVname
p1778
VIL_15RA
p1779
sVmeasurement_technology
p1780
Vantibody capture
p1781
sVabbreviation
p1782
VIL_15RA
p1783
sV_id
p1784
VPROTE.None.Inflammation.IL_15RA.None
p1785
sasVP05113
p1786
(lp1787
(dp1788
Vcategory
p1789
VProteomics
p1790
sVsubsystem
p1791
VInflammation
p1792
sVvendor
p1793
VOlink
p1794
sVname
p1795
VIL_5
p1796
sVmeasurement_technology
p1797
Vantibody capture
p1798
sVabbreviation
p1799
VIL_5
p1800
sV_id
p1801
VPROTE.None.Inflammation.IL_5.None
p1802
sasVQ6PHB0
p1803
(lp1804
(dp1805
Vcategory
p1806
VProteomics
p1807
sVsubsystem
p1808
VInflammation
p1809
sVvendor
p1810
VOlink
p1811
sVname
p1812
VIL_20RA
p1813
sVmeasurement_technology
p1814
Vantibody capture
p1815
sVabbreviation
p1816
VIL_20RA
p1817
sV_id
p1818
VPROTE.None.Inflammation.IL_20RA.None
p1819
sasVP07358
p1820
(lp1821
(dp1822
Vcategory
p1823
VProteomics
p1824
sVsubsystem
p1825
Vliver
p1826
sVvendor
p1827
VISB
p1828
sVdescription
p1829
VConstituent of the membrane attack complex (MAC) that plays a key role in the innate and adaptive immune response by forming pores in the plasma membrane of target cells.
p1830
sVmeasurement_technology
p1831
Vmass spectometry
p1832
sVabbreviation
p1833
VC8B
p1834
sVuniprot
p1835
g1820
sVpeptide
p1836
VGDYTLNNVHACAK
p1837
sV_id
p1838
VPROTE.None.liver.C8B.GDYTLNNVHACAK
p1839
sVname
p1840
VComplement component C8 beta chain
p1841
sa(dp1842
Vcategory
p1843
VProteomics
p1844
sVsubsystem
p1845
Vliver
p1846
sVvendor
p1847
VISB
p1848
sVdescription
p1849
VConstituent of the membrane attack complex (MAC) that plays a key role in the innate and adaptive immune response by forming pores in the plasma membrane of target cells.
p1850
sVmeasurement_technology
p1851
Vmass spectometry
p1852
sVabbreviation
p1853
VC8B
p1854
sVuniprot
p1855
VP07358
p1856
sVpeptide
p1857
VIPGIFELGISSQSDR
p1858
sV_id
p1859
VPROTE.None.liver.C8B.IPGIFELGISSQSDR
p1860
sVname
p1861
VComplement component C8 beta chain
p1862
sa(dp1863
Vcategory
p1864
VProteomics
p1865
sVsubsystem
p1866
Vliver
p1867
sVvendor
p1868
VISB
p1869
sVdescription
p1870
VConstituent of the membrane attack complex (MAC) that plays a key role in the innate and adaptive immune response by forming pores in the plasma membrane of target cells.
p1871
sVmeasurement_technology
p1872
Vmass spectometry
p1873
sVabbreviation
p1874
VC8B
p1875
sVuniprot
p1876
VP07358
p1877
sVpeptide
p1878
VSGFSFGFK
p1879
sV_id
p1880
VPROTE.None.liver.C8B.SGFSFGFK
p1881
sVname
p1882
VComplement component C8 beta chain
p1883
sasVQ13478
p1884
(lp1885
(dp1886
Vcategory
p1887
VProteomics
p1888
sVsubsystem
p1889
VInflammation
p1890
sVvendor
p1891
VOlink
p1892
sVname
p1893
VIL_18R1
p1894
sVmeasurement_technology
p1895
Vantibody capture
p1896
sVabbreviation
p1897
VIL_18R1
p1898
sV_id
p1899
VPROTE.None.Inflammation.IL_18R1.None
p1900
sasVQ63199
p1901
(lp1902
g495
asVQ8VI82
p1903
(lp1904
(dp1905
Vcategory
p1906
VProteomics
p1907
sVsubsystem
p1908
VCVD
p1909
sVvendor
p1910
VOlink
p1911
sVname
p1912
VFGF_23
p1913
sVmeasurement_technology
p1914
Vantibody capture
p1915
sVabbreviation
p1916
VFGF_23
p1917
sV_id
p1918
VPROTE.None.CVD.FGF_23.None
p1919
sa(dp1920
Vcategory
p1921
VProteomics
p1922
sVsubsystem
p1923
VInflammation
p1924
sVvendor
p1925
VOlink
p1926
sVname
p1927
VFGF_23
p1928
sVmeasurement_technology
p1929
Vantibody capture
p1930
sVabbreviation
p1931
VFGF_23
p1932
sV_id
p1933
VPROTE.None.Inflammation.FGF_23.None
p1934
sasVQ5RJQ4
p1935
(lp1936
g1162
ag1177
asVP17945
p1937
(lp1938
g1429
ag1444
asVP48759
p1939
(lp1940
g154
asVP02144
p1941
(lp1942
g883
asVP15656
p1943
(lp1944
g758
asVP48298
p1945
(lp1946
(dp1947
Vcategory
p1948
VProteomics
p1949
sVsubsystem
p1950
VInflammation
p1951
sVvendor
p1952
VOlink
p1953
sVname
p1954
VCCL11
p1955
sVmeasurement_technology
p1956
Vantibody capture
p1957
sVabbreviation
p1958
VCCL11
p1959
sV_id
p1960
VPROTE.None.Inflammation.CCL11.None
p1961
sasVO15394
p1962
(lp1963
(dp1964
Vcategory
p1965
VProteomics
p1966
sVsubsystem
p1967
Vbrain
p1968
sVvendor
p1969
VISB
p1970
sVdescription
p1971
VMay play important roles in selective fasciculation and zone-to-zone projection of the primary olfactory axons (837 aa)
p1972
sVmeasurement_technology
p1973
Vmass spectometry
p1974
sVabbreviation
p1975
VNCAM2
p1976
sVuniprot
p1977
g1962
sVpeptide
p1978
VFQEYILALADVPSSPYGVK
p1979
sV_id
p1980
VPROTE.None.brain.NCAM2.FQEYILALADVPSSPYGVK
p1981
sVname
p1982
Vneural cell adhesion molecule 2
p1983
sasVQ969D9
p1984
(lp1985
(dp1986
Vcategory
p1987
VProteomics
p1988
sVsubsystem
p1989
VInflammation
p1990
sVvendor
p1991
VOlink
p1992
sVname
p1993
VTSLP
p1994
sVmeasurement_technology
p1995
Vantibody capture
p1996
sVabbreviation
p1997
VTSLP
p1998
sV_id
p1999
VPROTE.None.Inflammation.TSLP.None
p2000
sasVP02741
p2001
(lp2002
(dp2003
Vcategory
p2004
VProteomics
p2005
sVsubsystem
p2006
Vliver
p2007
sVvendor
p2008
VISB
p2009
sVdescription
p2010
V Displays several functions associated with host defense- it promotes agglutination, bacterial capsular swelling, phagocytosis and complement fixation through its calcium-dependent binding to phosphorylcholine. Can interact with DNA and histones and may scavenge nuclear material released from damaged circulating cells (224 aa)
p2011
sVmeasurement_technology
p2012
Vmass spectometry
p2013
sVabbreviation
p2014
VCRP
p2015
sVuniprot
p2016
g2001
sVpeptide
p2017
VAPLTKPLK
p2018
sV_id
p2019
VPROTE.None.liver.CRP.APLTKPLK
p2020
sVname
p2021
VC-reactive protein, pentraxin-related
p2022
sa(dp2023
Vcategory
p2024
VProteomics
p2025
sVsubsystem
p2026
Vliver
p2027
sVvendor
p2028
VISB
p2029
sVdescription
p2030
V Displays several functions associated with host defense- it promotes agglutination, bacterial capsular swelling, phagocytosis and complement fixation through its calcium-dependent binding to phosphorylcholine. Can interact with DNA and histones and may scavenge nuclear material released from damaged circulating cells (224 aa)
p2031
sVmeasurement_technology
p2032
Vmass spectometry
p2033
sVabbreviation
p2034
VCRP
p2035
sVuniprot
p2036
VP02741
p2037
sVpeptide
p2038
VESDTSYVSLK
p2039
sV_id
p2040
VPROTE.None.liver.CRP.ESDTSYVSLK
p2041
sVname
p2042
VC-reactive protein, pentraxin-related
p2043
sasVP09056
p2044
(lp2045
(dp2046
Vcategory
p2047
VProteomics
p2048
sVsubsystem
p2049
VInflammation
p2050
sVvendor
p2051
VOlink
p2052
sVname
p2053
VLIF
p2054
sVmeasurement_technology
p2055
Vantibody capture
p2056
sVabbreviation
p2057
VLIF
p2058
sV_id
p2059
VPROTE.None.Inflammation.LIF.None
p2060
sasVQ13219
p2061
(lp2062
g306
asVQ9NRJ3
p2063
(lp2064
(dp2065
Vcategory
p2066
VProteomics
p2067
sVsubsystem
p2068
VInflammation
p2069
sVvendor
p2070
VOlink
p2071
sVname
p2072
VCCL28
p2073
sVmeasurement_technology
p2074
Vantibody capture
p2075
sVabbreviation
p2076
VCCL28
p2077
sV_id
p2078
VPROTE.None.Inflammation.CCL28.None
p2079
sasVQ9EPC2
p2080
(lp2081
g1905
ag1920
asVP11247
p2082
(lp2083
g69
asVO89110
p2084
(lp2085
g1348
ag1363
asVQ80XZ4
p2086
(lp2087
g1003
asVP08424
p2088
(lp2089
g1039
asVO55145
p2090
(lp2091
(dp2092
Vcategory
p2093
VProteomics
p2094
sVsubsystem
p2095
VCVD
p2096
sVvendor
p2097
VOlink
p2098
sVname
p2099
VCX3CL1
p2100
sVmeasurement_technology
p2101
Vantibody capture
p2102
sVabbreviation
p2103
VCX3CL1
p2104
sV_id
p2105
VPROTE.None.CVD.CX3CL1.None
p2106
sa(dp2107
Vcategory
p2108
VProteomics
p2109
sVsubsystem
p2110
VInflammation
p2111
sVvendor
p2112
VOlink
p2113
sVname
p2114
VCX3CL1
p2115
sVmeasurement_technology
p2116
Vantibody capture
p2117
sVabbreviation
p2118
VCX3CL1
p2119
sV_id
p2120
VPROTE.None.Inflammation.CX3CL1.None
p2121
sasVP18242
p2122
(lp2123
(dp2124
Vcategory
p2125
VProteomics
p2126
sVsubsystem
p2127
VCVD
p2128
sVvendor
p2129
VOlink
p2130
sVname
p2131
VCTSD
p2132
sVmeasurement_technology
p2133
Vantibody capture
p2134
sVabbreviation
p2135
VCTSD
p2136
sV_id
p2137
VPROTE.None.CVD.CTSD.None
p2138
sasVQ60819
p2139
(lp2140
g1771
asVO15444
p2141
(lp2142
(dp2143
Vcategory
p2144
VProteomics
p2145
sVsubsystem
p2146
VInflammation
p2147
sVvendor
p2148
VOlink
p2149
sVname
p2150
VCCL25
p2151
sVmeasurement_technology
p2152
Vantibody capture
p2153
sVabbreviation
p2154
VCCL25
p2155
sV_id
p2156
VPROTE.None.Inflammation.CCL25.None
p2157
sasVQ9BZW8
p2158
(lp2159
g1124
asVQ99075
p2160
(lp2161
g1141
asVQ61098
p2162
(lp2163
g1886
asVP50229
p2164
(lp2165
g1690
asVP98105
p2166
(lp2167
(dp2168
Vcategory
p2169
VProteomics
p2170
sVsubsystem
p2171
VCVD
p2172
sVvendor
p2173
VOlink
p2174
sVname
p2175
VSELE
p2176
sVmeasurement_technology
p2177
Vantibody capture
p2178
sVabbreviation
p2179
VSELE
p2180
sV_id
p2181
VPROTE.None.CVD.SELE.None
p2182
sasVQ9JIL2
p2183
(lp2184
g2065
asVQ9R000
p2185
(lp2186
(dp2187
Vcategory
p2188
VProteomics
p2189
sVsubsystem
p2190
VCVD
p2191
sVvendor
p2192
VOlink
p2193
sVname
p2194
VITGB1BP2
p2195
sVmeasurement_technology
p2196
Vantibody capture
p2197
sVabbreviation
p2198
VITGB1BP2
p2199
sV_id
p2200
VPROTE.None.CVD.ITGB1BP2.None
p2201
sasVQ920P6
p2202
(lp2203
g35
asVP14784
p2204
(lp2205
g832
asVQ8K4C5
p2206
(lp2207
(dp2208
Vcategory
p2209
VProteomics
p2210
sVsubsystem
p2211
VInflammation
p2212
sVvendor
p2213
VOlink
p2214
sVname
p2215
VIL_17C
p2216
sVmeasurement_technology
p2217
Vantibody capture
p2218
sVabbreviation
p2219
VIL_17C
p2220
sV_id
p2221
VPROTE.None.Inflammation.IL_17C.None
p2222
sasVP15090
p2223
(lp2224
(dp2225
Vcategory
p2226
VProteomics
p2227
sVsubsystem
p2228
VCVD
p2229
sVvendor
p2230
VOlink
p2231
sVname
p2232
VFABP4
p2233
sVmeasurement_technology
p2234
Vantibody capture
p2235
sVabbreviation
p2236
VFABP4
p2237
sV_id
p2238
VPROTE.None.CVD.FABP4.None
p2239
sasVP02749
p2240
(lp2241
(dp2242
Vcategory
p2243
VProteomics
p2244
sVsubsystem
p2245
Vliver
p2246
sVvendor
p2247
VISB
p2248
sVdescription
p2249
VBinds to various kinds of negatively charged substances such as heparin, phospholipids, and dextran sulfate. May prevent activation of the intrinsic blood coagulation cascade by binding to phospholipids on the surface of damaged cells.
p2250
sVmeasurement_technology
p2251
Vmass spectometry
p2252
sVabbreviation
p2253
VAPOH
p2254
sVuniprot
p2255
g2240
sVpeptide
p2256
VFICPLTGLWPINTLK
p2257
sV_id
p2258
VPROTE.None.liver.APOH.FICPLTGLWPINTLK
p2259
sVname
p2260
VBeta-2-glycoprotein 1
p2261
sa(dp2262
Vcategory
p2263
VProteomics
p2264
sVsubsystem
p2265
Vliver
p2266
sVvendor
p2267
VISB
p2268
sVdescription
p2269
VBinds to various kinds of negatively charged substances such as heparin, phospholipids, and dextran sulfate. May prevent activation of the intrinsic blood coagulation cascade by binding to phospholipids on the surface of damaged cells.
p2270
sVmeasurement_technology
p2271
Vmass spectometry
p2272
sVabbreviation
p2273
VAPOH
p2274
sVuniprot
p2275
VP02749
p2276
sVpeptide
p2277
VTCPKPDDLPFSTVVPLK
p2278
sV_id
p2279
VPROTE.None.liver.APOH.TCPKPDDLPFSTVVPLK
p2280
sVname
p2281
VBeta-2-glycoprotein 1
p2282
sasVO95760
p2283
(lp2284
(dp2285
Vcategory
p2286
VProteomics
p2287
sVsubsystem
p2288
VInflammation
p2289
sVvendor
p2290
VOlink
p2291
sVname
p2292
VIL_33
p2293
sVmeasurement_technology
p2294
Vantibody capture
p2295
sVabbreviation
p2296
VIL_33
p2297
sV_id
p2298
VPROTE.None.Inflammation.IL_33.None
p2299
sasVP06127
p2300
(lp2301
g171
asVP20109
p2302
(lp2303
(dp2304
Vcategory
p2305
VProteomics
p2306
sVsubsystem
p2307
VInflammation
p2308
sVvendor
p2309
VOlink
p2310
sVname
p2311
VIL_13
p2312
sVmeasurement_technology
p2313
Vantibody capture
p2314
sVabbreviation
p2315
VIL_13
p2316
sV_id
p2317
VPROTE.None.Inflammation.IL_13.None
p2318
sasVP13379
p2319
(lp2320
g171
asVQ9H5V8
p2321
(lp2322
(dp2323
Vcategory
p2324
VProteomics
p2325
sVsubsystem
p2326
VInflammation
p2327
sVvendor
p2328
VOlink
p2329
sVname
p2330
VCDCP1
p2331
sVmeasurement_technology
p2332
Vantibody capture
p2333
sVabbreviation
p2334
VCDCP1
p2335
sV_id
p2336
VPROTE.None.Inflammation.CDCP1.None
p2337
sasVP15018
p2338
(lp2339
g2046
asVP20607
p2340
(lp2341
(dp2342
Vcategory
p2343
VProteomics
p2344
sVsubsystem
p2345
VCVD
p2346
sVvendor
p2347
VOlink
p2348
sVname
p2349
VIL_6
p2350
sVmeasurement_technology
p2351
Vantibody capture
p2352
sVabbreviation
p2353
VIL_6
p2354
sV_id
p2355
VPROTE.None.CVD.IL_6.None
p2356
sa(dp2357
Vcategory
p2358
VProteomics
p2359
sVsubsystem
p2360
VInflammation
p2361
sVvendor
p2362
VOlink
p2363
sVname
p2364
VIL_6
p2365
sVmeasurement_technology
p2366
Vantibody capture
p2367
sVabbreviation
p2368
VIL_6
p2369
sV_id
p2370
VPROTE.None.Inflammation.IL_6.None
p2371
sasVP70380
p2372
(lp2373
(dp2374
Vcategory
p2375
VProteomics
p2376
sVsubsystem
p2377
VCVD
p2378
sVvendor
p2379
VOlink
p2380
sVname
p2381
VIL_18
p2382
sVmeasurement_technology
p2383
Vantibody capture
p2384
sVabbreviation
p2385
VIL_18
p2386
sV_id
p2387
VPROTE.None.CVD.IL_18.None
p2388
sa(dp2389
Vcategory
p2390
VProteomics
p2391
sVsubsystem
p2392
VInflammation
p2393
sVvendor
p2394
VOlink
p2395
sVname
p2396
VIL_18
p2397
sVmeasurement_technology
p2398
Vantibody capture
p2399
sVabbreviation
p2400
VIL_18
p2401
sV_id
p2402
VPROTE.None.Inflammation.IL_18.None
p2403
sasVQ9JJN1
p2404
(lp2405
g396
asVP78423
p2406
(lp2407
g2092
ag2107
asVP42830
p2408
(lp2409
g379
asVQ16552
p2410
(lp2411
(dp2412
Vcategory
p2413
VProteomics
p2414
sVsubsystem
p2415
VInflammation
p2416
sVvendor
p2417
VOlink
p2418
sVname
p2419
VIL_17A
p2420
sVmeasurement_technology
p2421
Vantibody capture
p2422
sVabbreviation
p2423
VIL_17A
p2424
sV_id
p2425
VPROTE.None.Inflammation.IL_17A.None
p2426
sasVP25445
p2427
(lp2428
g495
asVQ9JHX4
p2429
(lp2430
g1348
ag1363
asVQ61003
p2431
(lp2432
g1499
asVP01236
p2433
(lp2434
(dp2435
Vcategory
p2436
VProteomics
p2437
sVsubsystem
p2438
VCVD
p2439
sVvendor
p2440
VOlink
p2441
sVname
p2442
VPRL
p2443
sVmeasurement_technology
p2444
Vantibody capture
p2445
sVabbreviation
p2446
VPRL
p2447
sV_id
p2448
VPROTE.None.CVD.PRL.None
p2449
sasVP01237
p2450
(lp2451
g2435
asVP41222
p2452
(lp2453
(dp2454
Vcategory
p2455
VProteomics
p2456
sVsubsystem
p2457
Vheart
p2458
sVvendor
p2459
VISB
p2460
sVdescription
p2461
V Catalyzes the conversion of PGH2 to PGD2, a prostaglandin involved in smooth muscle contraction/relaxation and a potent inhibitor of platelet aggregation. Involved in a variety of CNS functions, such as sedation, NREM sleep and PGE2-induced allodynia, and may have an anti-apoptotic role in oligodendrocytes. Binds small non-substrate lipophilic molecules, including biliverdin, bilirubin, retinal, retinoic acid and thyroid hormone, and may act as a scavenger for harmful hydrophopic molecules and as a secretory retinoid and thyroid hormone transpor [...] (190 aa)
p2462
sVmeasurement_technology
p2463
Vmass spectometry
p2464
sVabbreviation
p2465
VPTGDS
p2466
sVuniprot
p2467
g2452
sVpeptide
p2468
VAQGFTEDTIVFLPQTDK
p2469
sV_id
p2470
VPROTE.None.heart.PTGDS.AQGFTEDTIVFLPQTDK
p2471
sVname
p2472
Vprostaglandin D2 synthase 21kDa (brain)
p2473
sasVQ9QZ76
p2474
(lp2475
g883
asVP55773
p2476
(lp2477
(dp2478
Vcategory
p2479
VProteomics
p2480
sVsubsystem
p2481
VInflammation
p2482
sVvendor
p2483
VOlink
p2484
sVname
p2485
VCCL23
p2486
sVmeasurement_technology
p2487
Vantibody capture
p2488
sVabbreviation
p2489
VCCL23
p2490
sV_id
p2491
VPROTE.None.Inflammation.CCL23.None
p2492
sasVQ07325
p2493
(lp2494
(dp2495
Vcategory
p2496
VProteomics
p2497
sVsubsystem
p2498
VInflammation
p2499
sVvendor
p2500
VOlink
p2501
sVname
p2502
VCXCL9
p2503
sVmeasurement_technology
p2504
Vantibody capture
p2505
sVabbreviation
p2506
VCXCL9
p2507
sV_id
p2508
VPROTE.None.Inflammation.CXCL9.None
p2509
sasVQ96IY4
p2510
(lp2511
(dp2512
Vcategory
p2513
VProteomics
p2514
sVsubsystem
p2515
Vliver
p2516
sVvendor
p2517
VISB
p2518
sVdescription
p2519
VCleaves C-terminal arginine or lysine residues from biologically active peptides such as kinins or anaphylatoxins in the circulation thereby regulating their activities. Down-regulates fibrinolysis by removing C-terminal lysine residues from fibrin that has already been partially degraded by plasmin.
p2520
sVmeasurement_technology
p2521
Vmass spectometry
p2522
sVabbreviation
p2523
VCPB2
p2524
sVuniprot
p2525
g2510
sVpeptide
p2526
VSFYANNHCIGTDLNR
p2527
sV_id
p2528
VPROTE.None.liver.CPB2.SFYANNHCIGTDLNR
p2529
sVname
p2530
VCarboxypeptidase B2
p2531
sa(dp2532
Vcategory
p2533
VProteomics
p2534
sVsubsystem
p2535
Vliver
p2536
sVvendor
p2537
VISB
p2538
sVdescription
p2539
VCleaves C-terminal arginine or lysine residues from biologically active peptides such as kinins or anaphylatoxins in the circulation thereby regulating their activities. Down-regulates fibrinolysis by removing C-terminal lysine residues from fibrin that has already been partially degraded by plasmin.
p2540
sVmeasurement_technology
p2541
Vmass spectometry
p2542
sVabbreviation
p2543
VCPB2
p2544
sVuniprot
p2545
VQ96IY4
p2546
sVpeptide
p2547
VYSFTIELR
p2548
sV_id
p2549
VPROTE.None.liver.CPB2.YSFTIELR
p2550
sVname
p2551
VCarboxypeptidase B2
p2552
sasVP01133
p2553
(lp2554
(dp2555
Vcategory
p2556
VProteomics
p2557
sVsubsystem
p2558
VCVD
p2559
sVvendor
p2560
VOlink
p2561
sVname
p2562
VEGF
p2563
sVmeasurement_technology
p2564
Vantibody capture
p2565
sVabbreviation
p2566
VEGF
p2567
sV_id
p2568
VPROTE.None.CVD.EGF.None
p2569
sasVP01132
p2570
(lp2571
g2555
asVP01135
p2572
(lp2573
g231
asVP01134
p2574
(lp2575
g231
asVP17515
p2576
(lp2577
g775
asVQ14192
p2578
(lp2579
(dp2580
Vcategory
p2581
VProteomics
p2582
sVsubsystem
p2583
Vheart
p2584
sVvendor
p2585
VISB
p2586
sVdescription
p2587
VMay function as a molecular transmitter linking various signaling pathways to transcriptional regulation. Negatively regulates the transcriptional repressor E4F1 and may function in cell growth (279 aa)
p2588
sVmeasurement_technology
p2589
Vmass spectometry
p2590
sVabbreviation
p2591
VFHL2
p2592
sVuniprot
p2593
g2578
sVpeptide
p2594
VECFVCTACR
p2595
sV_id
p2596
VPROTE.None.heart.FHL2.ECFVCTACR
p2597
sVname
p2598
Vfour and a half LIM domains 2
p2599
sasVP27918
p2600
(lp2601
(dp2602
Vcategory
p2603
VProteomics
p2604
sVsubsystem
p2605
Vwbc
p2606
sVvendor
p2607
VISB
p2608
sVdescription
p2609
VA positive regulator of the alternate pathway of complement. It binds to and stabilizes the C3- and C5-convertase enzyme complexes.
p2610
sVmeasurement_technology
p2611
Vmass spectometry
p2612
sVabbreviation
p2613
VCFP
p2614
sVuniprot
p2615
g2600
sVpeptide
p2616
VSISCQEIPGQQSR
p2617
sV_id
p2618
VPROTE.None.wbc.CFP.SISCQEIPGQQSR
p2619
sVname
p2620
VProperdin
p2621
sa(dp2622
Vcategory
p2623
VProteomics
p2624
sVsubsystem
p2625
Vwbc
p2626
sVvendor
p2627
VISB
p2628
sVdescription
p2629
VA positive regulator of the alternate pathway of complement. It binds to and stabilizes the C3- and C5-convertase enzyme complexes.
p2630
sVmeasurement_technology
p2631
Vmass spectometry
p2632
sVabbreviation
p2633
VCFP
p2634
sVuniprot
p2635
VP27918
p2636
sVpeptide
p2637
VTCNHPVPQHGGPFCAGDATR
p2638
sV_id
p2639
VPROTE.None.wbc.CFP.TCNHPVPQHGGPFCAGDATR
p2640
sVname
p2641
VProperdin
p2642
sasVP06880
p2643
(lp2644
(dp2645
Vcategory
p2646
VProteomics
p2647
sVsubsystem
p2648
VCVD
p2649
sVvendor
p2650
VOlink
p2651
sVname
p2652
VGH
p2653
sVmeasurement_technology
p2654
Vantibody capture
p2655
sVabbreviation
p2656
VGH
p2657
sV_id
p2658
VPROTE.None.CVD.GH.None
p2659
sasVQ07763
p2660
(lp2661
g1124
asVO35188
p2662
(lp2663
g2092
ag2107
asVQ9Z0L2
p2664
(lp2665
(dp2666
Vcategory
p2667
VProteomics
p2668
sVsubsystem
p2669
VInflammation
p2670
sVvendor
p2671
VOlink
p2672
sVname
p2673
VARTN
p2674
sVmeasurement_technology
p2675
Vantibody capture
p2676
sVabbreviation
p2677
VARTN
p2678
sV_id
p2679
VPROTE.None.Inflammation.ARTN.None
p2680
sasVP05480
p2681
(lp2682
g707
asVP14095
p2683
(lp2684
(dp2685
Vcategory
p2686
VProteomics
p2687
sVsubsystem
p2688
VCVD
p2689
sVvendor
p2690
VOlink
p2691
sVname
p2692
VCXCL1
p2693
sVmeasurement_technology
p2694
Vantibody capture
p2695
sVabbreviation
p2696
VCXCL1
p2697
sV_id
p2698
VPROTE.None.CVD.CXCL1.None
p2699
sa(dp2700
Vcategory
p2701
VProteomics
p2702
sVsubsystem
p2703
VInflammation
p2704
sVvendor
p2705
VOlink
p2706
sVname
p2707
VCXCL1
p2708
sVmeasurement_technology
p2709
Vantibody capture
p2710
sVabbreviation
p2711
VCXCL1
p2712
sV_id
p2713
VPROTE.None.Inflammation.CXCL1.None
p2714
sasVP14097
p2715
(lp2716
(dp2717
Vcategory
p2718
VProteomics
p2719
sVsubsystem
p2720
VCVD
p2721
sVvendor
p2722
VOlink
p2723
sVname
p2724
VCCL4
p2725
sVmeasurement_technology
p2726
Vantibody capture
p2727
sVabbreviation
p2728
VCCL4
p2729
sV_id
p2730
VPROTE.None.CVD.CCL4.None
p2731
sa(dp2732
Vcategory
p2733
VProteomics
p2734
sVsubsystem
p2735
VInflammation
p2736
sVvendor
p2737
VOlink
p2738
sVname
p2739
VCCL4
p2740
sVmeasurement_technology
p2741
Vantibody capture
p2742
sVabbreviation
p2743
VCCL4
p2744
sV_id
p2745
VPROTE.None.Inflammation.CCL4.None
p2746
sasVP16581
p2747
(lp2748
g2168
asVQ8JZM4
p2749
(lp2750
g1107
asVP10855
p2751
(lp2752
g1690
asVQ8BVZ5
p2753
(lp2754
g2285
asVQ08048
p2755
(lp2756
g1429
ag1444
asVP14151
p2757
(lp2758
(dp2759
Vcategory
p2760
VProteomics
p2761
sVsubsystem
p2762
Vwbc
p2763
sVvendor
p2764
VISB
p2765
sVdescription
p2766
VCell surface adhesion protein. Mediates the adherence of lymphocytes to endothelial cells of high endothelial venules in peripheral lymph nodes. Promotes initial tethering and rolling of leukocytes in endothelia.
p2767
sVmeasurement_technology
p2768
Vmass spectometry
p2769
sVabbreviation
p2770
VSELL
p2771
sVuniprot
p2772
g2757
sVpeptide
p2773
VSLTEEAENWGDGEPNNK
p2774
sV_id
p2775
VPROTE.None.wbc.SELL.SLTEEAENWGDGEPNNK
p2776
sVname
p2777
VL-selectin
p2778
sasVO00187
p2779
(lp2780
(dp2781
Vcategory
p2782
VProteomics
p2783
sVsubsystem
p2784
Vliver
p2785
sVvendor
p2786
VISB
p2787
sVdescription
p2788
VSerum protease that plays an important role in the activation of the complement system via mannose-binding lectin. After activation by auto-catalytic cleavage it cleaves C2 and C4, leading to their activation and to the formation of C3 convertase.
p2789
sVmeasurement_technology
p2790
Vmass spectometry
p2791
sVabbreviation
p2792
VMASP2
p2793
sVuniprot
p2794
g2779
sVpeptide
p2795
VWPEPVFGR
p2796
sV_id
p2797
VPROTE.None.liver.MASP2.WPEPVFGR
p2798
sVname
p2799
VMannan-binding lectin serine protease 2
p2800
sa(dp2801
Vcategory
p2802
VProteomics
p2803
sVsubsystem
p2804
Vliver
p2805
sVvendor
p2806
VISB
p2807
sVdescription
p2808
VSerum protease that plays an important role in the activation of the complement system via mannose-binding lectin. After activation by auto-catalytic cleavage it cleaves C2 and C4, leading to their activation and to the formation of C3 convertase.
p2809
sVmeasurement_technology
p2810
Vmass spectometry
p2811
sVabbreviation
p2812
VMASP2
p2813
sVuniprot
p2814
VO00187
p2815
sVpeptide
p2816
VWTLTAPPGYR
p2817
sV_id
p2818
VPROTE.None.liver.MASP2.WTLTAPPGYR
p2819
sVname
p2820
VMannan-binding lectin serine protease 2
p2821
sasVP04401
p2822
(lp2823
g1788
asVO54824
p2824
(lp2825
(dp2826
Vcategory
p2827
VProteomics
p2828
sVsubsystem
p2829
VCVD
p2830
sVvendor
p2831
VOlink
p2832
sVname
p2833
VIL_16
p2834
sVmeasurement_technology
p2835
Vantibody capture
p2836
sVabbreviation
p2837
VIL_16
p2838
sV_id
p2839
VPROTE.None.CVD.IL_16.None
p2840
sasVP29460
p2841
(lp2842
g866
asVP20334
p2843
(lp2844
(dp2845
Vcategory
p2846
VProteomics
p2847
sVsubsystem
p2848
VInflammation
p2849
sVvendor
p2850
VOlink
p2851
sVname
p2852
VTNFRSF9
p2853
sVmeasurement_technology
p2854
Vantibody capture
p2855
sVabbreviation
p2856
VTNFRSF9
p2857
sV_id
p2858
VPROTE.None.Inflammation.TNFRSF9.None
p2859
sasVP01008
p2860
(lp2861
(dp2862
Vcategory
p2863
VProteomics
p2864
sVsubsystem
p2865
Vliver
p2866
sVvendor
p2867
VISB
p2868
sVdescription
p2869
V Most important serine protease inhibitor in plasma that regulates the blood coagulation cascade. AT-III inhibits thrombin as well as factors IXa, Xa and XIa. Its inhibitory activity is greatly enhanced in the presence of heparin (464 aa)
p2870
sVmeasurement_technology
p2871
Vmass spectometry
p2872
sVabbreviation
p2873
VSERPINC1
p2874
sVuniprot
p2875
g2860
sVpeptide
p2876
VDDLYVSDAFHK
p2877
sV_id
p2878
VPROTE.None.liver.SERPINC1.DDLYVSDAFHK
p2879
sVname
p2880
Vserpin peptidase inhibitor, clade C (antithrombin), member 1
p2881
sa(dp2882
Vcategory
p2883
VProteomics
p2884
sVsubsystem
p2885
Vliver
p2886
sVvendor
p2887
VISB
p2888
sVdescription
p2889
V Most important serine protease inhibitor in plasma that regulates the blood coagulation cascade. AT-III inhibits thrombin as well as factors IXa, Xa and XIa. Its inhibitory activity is greatly enhanced in the presence of heparin (464 aa)
p2890
sVmeasurement_technology
p2891
Vmass spectometry
p2892
sVabbreviation
p2893
VSERPINC1
p2894
sVuniprot
p2895
VP01008
p2896
sVpeptide
p2897
VTSDQIHFFFAK
p2898
sV_id
p2899
VPROTE.None.liver.SERPINC1.TSDQIHFFFAK
p2900
sVname
p2901
Vserpin peptidase inhibitor, clade C (antithrombin), member 1
p2902
sasVP02753
p2903
(lp2904
(dp2905
Vcategory
p2906
VProteomics
p2907
sVsubsystem
p2908
Vliver
p2909
sVvendor
p2910
VISB
p2911
sVdescription
p2912
VDelivers retinol from the liver stores to the peripheral tissues. In plasma, the RBP-retinol complex interacts with transthyretin, this prevents its loss by filtration through the kidney glomeruli.
p2913
sVmeasurement_technology
p2914
Vmass spectometry
p2915
sVabbreviation
p2916
VRBP4
p2917
sVuniprot
p2918
g2903
sVpeptide
p2919
VGNDDHWIVDTDYDTYAVQYSCR
p2920
sV_id
p2921
VPROTE.None.liver.RBP4.GNDDHWIVDTDYDTYAVQYSCR
p2922
sVname
p2923
VRetinol-binding protein 4
p2924
sa(dp2925
Vcategory
p2926
VProteomics
p2927
sVsubsystem
p2928
Vliver
p2929
sVvendor
p2930
VISB
p2931
sVdescription
p2932
VDelivers retinol from the liver stores to the peripheral tissues. In plasma, the RBP-retinol complex interacts with transthyretin, this prevents its loss by filtration through the kidney glomeruli.
p2933
sVmeasurement_technology
p2934
Vmass spectometry
p2935
sVabbreviation
p2936
VRBP4
p2937
sVuniprot
p2938
VP02753
p2939
sVpeptide
p2940
VYWGVASFLQK
p2941
sV_id
p2942
VPROTE.None.liver.RBP4.YWGVASFLQK
p2943
sVname
p2944
VRetinol-binding protein 4
p2945
sasVQ12860
p2946
(lp2947
(dp2948
Vcategory
p2949
VProteomics
p2950
sVsubsystem
p2951
Vbrain
p2952
sVvendor
p2953
VISB
p2954
sVdescription
p2955
VContactins mediate cell surface interactions during nervous system development. Involved in the formation of paranodal axo-glial junctions in myelinated peripheral nerves and in the signaling between axons and myelinating glial cells via its association with CNTNAP1. Participates in oligodendrocytes generation by acting as a ligand of NOTCH1. Its association with NOTCH1 promotes NOTCH1 activation through the released notch intracellular domain (NICD) and subsequent translocation to the nucleus. Interaction with TNR induces a repulsion of neurons and an inhibition of neurit [...] (1018 aa)
p2956
sVmeasurement_technology
p2957
Vmass spectometry
p2958
sVabbreviation
p2959
VCNTN1
p2960
sVuniprot
p2961
g2946
sVpeptide
p2962
VELTITWAPLSR
p2963
sV_id
p2964
VPROTE.None.brain.CNTN1.ELTITWAPLSR
p2965
sVname
p2966
Vcontactin 1
p2967
sa(dp2968
Vcategory
p2969
VProteomics
p2970
sVsubsystem
p2971
Vbrain
p2972
sVvendor
p2973
VISB
p2974
sVdescription
p2975
VContactins mediate cell surface interactions during nervous system development. Involved in the formation of paranodal axo-glial junctions in myelinated peripheral nerves and in the signaling between axons and myelinating glial cells via its association with CNTNAP1. Participates in oligodendrocytes generation by acting as a ligand of NOTCH1. Its association with NOTCH1 promotes NOTCH1 activation through the released notch intracellular domain (NICD) and subsequent translocation to the nucleus. Interaction with TNR induces a repulsion of neurons and an inhibition of neurit [...] (1018 aa)
p2976
sVmeasurement_technology
p2977
Vmass spectometry
p2978
sVabbreviation
p2979
VCNTN1
p2980
sVuniprot
p2981
VQ12860
p2982
sVpeptide
p2983
VTTKPYPADIVVQFK
p2984
sV_id
p2985
VPROTE.None.brain.CNTN1.TTKPYPADIVVQFK
p2986
sVname
p2987
Vcontactin 1
p2988
sasVP97946
p2989
(lp2990
(dp2991
Vcategory
p2992
VProteomics
p2993
sVsubsystem
p2994
VCVD
p2995
sVvendor
p2996
VOlink
p2997
sVname
p2998
VVEGF_D
p2999
sVmeasurement_technology
p3000
Vantibody capture
p3001
sVabbreviation
p3002
VVEGF_D
p3003
sV_id
p3004
VPROTE.None.CVD.VEGF_D.None
p3005
sasVQ9P0M4
p3006
(lp3007
g2208
asVQ00690
p3008
(lp3009
g2168
asVP27512
p3010
(lp3011
(dp3012
Vcategory
p3013
VProteomics
p3014
sVsubsystem
p3015
VCVD
p3016
sVvendor
p3017
VOlink
p3018
sVname
p3019
VCD40
p3020
sVmeasurement_technology
p3021
Vantibody capture
p3022
sVabbreviation
p3023
VCD40
p3024
sV_id
p3025
VPROTE.None.CVD.CD40.None
p3026
sa(dp3027
Vcategory
p3028
VProteomics
p3029
sVsubsystem
p3030
VInflammation
p3031
sVvendor
p3032
VOlink
p3033
sVname
p3034
VCD40
p3035
sVmeasurement_technology
p3036
Vantibody capture
p3037
sVabbreviation
p3038
VCD40
p3039
sV_id
p3040
VPROTE.None.Inflammation.CD40.None
p3041
sasVP16297
p3042
(lp3043
g832
asVQ14624
p3044
(lp3045
(dp3046
Vcategory
p3047
VProteomics
p3048
sVsubsystem
p3049
Vliver
p3050
sVvendor
p3051
VISB
p3052
sVdescription
p3053
VMay be involved in acute phase reactions (930 aa)
p3054
sVmeasurement_technology
p3055
Vmass spectometry
p3056
sVabbreviation
p3057
VITIH4
p3058
sVuniprot
p3059
g3044
sVpeptide
p3060
VILDDLSPR
p3061
sV_id
p3062
VPROTE.None.liver.ITIH4.ILDDLSPR
p3063
sVname
p3064
Vinter-alpha (globulin) inhibitor H4 (plasma Kallikrein-sensitive glycoprotein)
p3065
sa(dp3066
Vcategory
p3067
VProteomics
p3068
sVsubsystem
p3069
Vliver
p3070
sVvendor
p3071
VISB
p3072
sVdescription
p3073
VMay be involved in acute phase reactions (930 aa)
p3074
sVmeasurement_technology
p3075
Vmass spectometry
p3076
sVabbreviation
p3077
VITIH4
p3078
sVuniprot
p3079
VQ14624
p3080
sVpeptide
p3081
VLGVYELLLK
p3082
sV_id
p3083
VPROTE.None.liver.ITIH4.LGVYELLLK
p3084
sVname
p3085
Vinter-alpha (globulin) inhibitor H4 (plasma Kallikrein-sensitive glycoprotein)
p3086
sasVP25774
p3087
(lp3088
(dp3089
Vcategory
p3090
VProteomics
p3091
sVsubsystem
p3092
Vwbc
p3093
sVvendor
p3094
VISB
p3095
sVdescription
p3096
VThiol protease. Key protease responsible for the removal of the invariant chain from MHC class II molecules. The bond-specificity of this proteinase is in part similar to the specificities of cathepsin L and cathepsin N.
p3097
sVmeasurement_technology
p3098
Vmass spectometry
p3099
sVabbreviation
p3100
VCTSS
p3101
sVuniprot
p3102
g3087
sVpeptide
p3103
VGIDSDASYPYK
p3104
sV_id
p3105
VPROTE.None.wbc.CTSS.GIDSDASYPYK
p3106
sVname
p3107
VCathepsin S
p3108
sa(dp3109
Vcategory
p3110
VProteomics
p3111
sVsubsystem
p3112
Vwbc
p3113
sVvendor
p3114
VISB
p3115
sVdescription
p3116
VThiol protease. Key protease responsible for the removal of the invariant chain from MHC class II molecules. The bond-specificity of this proteinase is in part similar to the specificities of cathepsin L and cathepsin N.
p3117
sVmeasurement_technology
p3118
Vmass spectometry
p3119
sVabbreviation
p3120
VCTSS
p3121
sVuniprot
p3122
VP25774
p3123
sVpeptide
p3124
VYTELPYGR
p3125
sV_id
p3126
VPROTE.None.wbc.CTSS.YTELPYGR
p3127
sVname
p3128
VCathepsin S
p3129
sasVP97545
p3130
(lp3131
g1947
asVP25942
p3132
(lp3133
g3012
ag3027
asVP50280
p3134
(lp3135
(dp3136
Vcategory
p3137
VProteomics
p3138
sVsubsystem
p3139
VCVD
p3140
sVvendor
p3141
VOlink
p3142
sVname
p3143
VMMP_7
p3144
sVmeasurement_technology
p3145
Vantibody capture
p3146
sVabbreviation
p3147
VMMP_7
p3148
sV_id
p3149
VPROTE.None.CVD.MMP_7.None
p3150
sasVQ5U462
p3151
(lp3152
g2323
asVP27169
p3153
(lp3154
(dp3155
Vcategory
p3156
VProteomics
p3157
sVsubsystem
p3158
Vliver
p3159
sVvendor
p3160
VISB
p3161
sVdescription
p3162
VHydrolyzes the toxic metabolites of a variety of organophosphorus insecticides. Capable of hydrolyzing a broad spectrum of organophosphate substrates and a number of aromatic carboxylic acid esters. May mediate an enzymatic protection of low density lipoproteins against oxidative modification and the consequent series of events leading to atheroma formation (355 aa)
p3163
sVmeasurement_technology
p3164
Vmass spectometry
p3165
sVabbreviation
p3166
VPON1
p3167
sVuniprot
p3168
g3153
sVpeptide
p3169
VIFFYDSENPPASEVLR
p3170
sV_id
p3171
VPROTE.None.liver.PON1.IFFYDSENPPASEVLR
p3172
sVname
p3173
Vparaoxonase 1
p3174
sa(dp3175
Vcategory
p3176
VProteomics
p3177
sVsubsystem
p3178
Vliver
p3179
sVvendor
p3180
VISB
p3181
sVdescription
p3182
VHydrolyzes the toxic metabolites of a variety of organophosphorus insecticides. Capable of hydrolyzing a broad spectrum of organophosphate substrates and a number of aromatic carboxylic acid esters. May mediate an enzymatic protection of low density lipoproteins against oxidative modification and the consequent series of events leading to atheroma formation (355 aa)
p3183
sVmeasurement_technology
p3184
Vmass spectometry
p3185
sVabbreviation
p3186
VPON1
p3187
sVuniprot
p3188
VP27169
p3189
sVpeptide
p3190
VIQNILTEEPK
p3191
sV_id
p3192
VPROTE.None.liver.PON1.IQNILTEEPK
p3193
sVname
p3194
Vparaoxonase 1
p3195
sasVP50596
p3196
(lp3197
g103
asVO55123
p3198
(lp3199
g1239
ag1254
asVO43557
p3200
(lp3201
g1467
ag1482
asVP00813
p3202
(lp3203
g35
asVP41160
p3204
(lp3205
g103
asVO70460
p3206
(lp3207
g1271
asVQ9JHH5
p3208
(lp3209
(dp3210
Vcategory
p3211
VProteomics
p3212
sVsubsystem
p3213
VInflammation
p3214
sVvendor
p3215
VOlink
p3216
sVname
p3217
VCXCL11
p3218
sVmeasurement_technology
p3219
Vantibody capture
p3220
sVabbreviation
p3221
VCXCL11
p3222
sV_id
p3223
VPROTE.None.Inflammation.CXCL11.None
p3224
sasVP18340
p3225
(lp3226
g2495
asVP42702
p3227
(lp3228
g340
asVQ9JKV9
p3229
(lp3230
g1639
asVQ99988
p3231
(lp3232
g1618
asVQ14116
p3233
(lp3234
g2374
ag2389
asVP10683
p3235
(lp3236
g267
asVP05231
p3237
(lp3238
g2342
ag2357
asVP15169
p3239
(lp3240
(dp3241
Vcategory
p3242
VProteomics
p3243
sVsubsystem
p3244
Vliver
p3245
sVvendor
p3246
VISB
p3247
sVdescription
p3248
VProtects the body from potent vasoactive and inflammatory peptides containing C-terminal Arg or Lys (such as kinins or anaphylatoxins) which are released into the circulation (458 aa)
p3249
sVmeasurement_technology
p3250
Vmass spectometry
p3251
sVabbreviation
p3252
VCPN1
p3253
sVuniprot
p3254
g3239
sVpeptide
p3255
VVQNECPGITR
p3256
sV_id
p3257
VPROTE.None.liver.CPN1.VQNECPGITR
p3258
sVname
p3259
Vcarboxypeptidase N, polypeptide 1
p3260
sasVP06804
p3261
(lp3262
g1329
asVQ04756
p3263
(lp3264
(dp3265
Vcategory
p3266
VProteomics
p3267
sVsubsystem
p3268
Vliver
p3269
sVvendor
p3270
VISB
p3271
sVdescription
p3272
VActivates hepatocyte growth factor (HGF) by converting it from a single chain to a heterodimeric form (655 aa)
p3273
sVmeasurement_technology
p3274
Vmass spectometry
p3275
sVabbreviation
p3276
VHGFAC
p3277
sVuniprot
p3278
g3263
sVpeptide
p3279
VVANYVDWINDR
p3280
sV_id
p3281
VPROTE.None.liver.HGFAC.VANYVDWINDR
p3282
sVname
p3283
VHGF activator
p3284
sa(dp3285
Vcategory
p3286
VProteomics
p3287
sVsubsystem
p3288
Vliver
p3289
sVvendor
p3290
VISB
p3291
sVdescription
p3292
VActivates hepatocyte growth factor (HGF) by converting it from a single chain to a heterodimeric form (655 aa)
p3293
sVmeasurement_technology
p3294
Vmass spectometry
p3295
sVabbreviation
p3296
VHGFAC
p3297
sVuniprot
p3298
VQ04756
p3299
sVpeptide
p3300
VYEYLEGGDR
p3301
sV_id
p3302
VPROTE.None.liver.HGFAC.YEYLEGGDR
p3303
sVname
p3304
VHGF activator
p3305
sasVP02743
p3306
(lp3307
(dp3308
Vcategory
p3309
VProteomics
p3310
sVsubsystem
p3311
Vliver
p3312
sVvendor
p3313
VISB
p3314
sVdescription
p3315
VCan interact with DNA and histones and may scavenge nuclear material released from damaged circulating cells. May also function as a calcium-dependent lectin (223 aa)
p3316
sVmeasurement_technology
p3317
Vmass spectometry
p3318
sVabbreviation
p3319
VAPCS
p3320
sVuniprot
p3321
g3306
sVpeptide
p3322
VIVLGQEQDSYGGK
p3323
sV_id
p3324
VPROTE.None.liver.APCS.IVLGQEQDSYGGK
p3325
sVname
p3326
Vamyloid P component, serum
p3327
sa(dp3328
Vcategory
p3329
VProteomics
p3330
sVsubsystem
p3331
Vliver
p3332
sVvendor
p3333
VISB
p3334
sVdescription
p3335
VCan interact with DNA and histones and may scavenge nuclear material released from damaged circulating cells. May also function as a calcium-dependent lectin (223 aa)
p3336
sVmeasurement_technology
p3337
Vmass spectometry
p3338
sVabbreviation
p3339
VAPCS
p3340
sVuniprot
p3341
VP02743
p3342
sVpeptide
p3343
VVGEYSLYIGR
p3344
sV_id
p3345
VPROTE.None.liver.APCS.VGEYSLYIGR
p3346
sVname
p3347
Vamyloid P component, serum
p3348
sasVQ61727
p3349
(lp3350
(dp3351
Vcategory
p3352
VProteomics
p3353
sVsubsystem
p3354
VInflammation
p3355
sVvendor
p3356
VOlink
p3357
sVname
p3358
VIL_10RA
p3359
sVmeasurement_technology
p3360
Vantibody capture
p3361
sVabbreviation
p3362
VIL_10RA
p3363
sV_id
p3364
VPROTE.None.Inflammation.IL_10RA.None
p3365
sasVP55103
p3366
(lp3367
(dp3368
Vcategory
p3369
VProteomics
p3370
sVsubsystem
p3371
Vliver
p3372
sVvendor
p3373
VISB
p3374
sVdescription
p3375
V Inhibins and activins inhibit and activate, respectively, the secretion of follitropin by the pituitary gland. Inhibins/activins are involved in regulating a number of diverse functions such as hypothalamic and pituitary hormone secretion, gonadal hormone secretion, germ cell development and maturation, erythroid differentiation, insulin secretion, nerve cell survival, embryonic axial development or bone growth, depending on their subunit composition. Inhibins appear to oppose the functions of activins (352 aa)
p3376
sVmeasurement_technology
p3377
Vmass spectometry
p3378
sVabbreviation
p3379
VINHBC
p3380
sVuniprot
p3381
g3366
sVpeptide
p3382
VLDFHFSSDR
p3383
sV_id
p3384
VPROTE.None.liver.INHBC.LDFHFSSDR
p3385
sVname
p3386
Vinhibin, beta C
p3387
sasVO43915
p3388
(lp3389
g2991
asVP08505
p3390
(lp3391
g2342
ag2357
asVQ6AXU5
p3392
(lp3393
g52
asVP23560
p3394
(lp3395
g1656
asVQ9QUM4
p3396
(lp3397
g900
asVP07750
p3398
(lp3399
g1397
ag1412
asVP04217
p3400
(lp3401
(dp3402
Vcategory
p3403
VProteomics
p3404
sVsubsystem
p3405
Vliver
p3406
sVvendor
p3407
VISB
p3408
sVname
p3409
VAlpha-1B-glycoprotein
p3410
sVmeasurement_technology
p3411
Vmass spectometry
p3412
sVabbreviation
p3413
VA1BG
p3414
sVuniprot
p3415
g3400
sVpeptide
p3416
VCEGPIPDVTFELLR
p3417
sV_id
p3418
VPROTE.None.liver.A1BG.CEGPIPDVTFELLR
p3419
sa(dp3420
Vcategory
p3421
VProteomics
p3422
sVsubsystem
p3423
Vliver
p3424
sVvendor
p3425
VISB
p3426
sVname
p3427
VAlpha-1B-glycoprotein
p3428
sVmeasurement_technology
p3429
Vmass spectometry
p3430
sVabbreviation
p3431
VA1BG
p3432
sVuniprot
p3433
VP04217
p3434
sVpeptide
p3435
VSGLSTGWTQLSK
p3436
sV_id
p3437
VPROTE.None.liver.A1BG.SGLSTGWTQLSK
p3438
sasVP22272
p3439
(lp3440
(dp3441
Vcategory
p3442
VProteomics
p3443
sVsubsystem
p3444
VCVD
p3445
sVvendor
p3446
VOlink
p3447
sVname
p3448
VIL_6RA
p3449
sVmeasurement_technology
p3450
Vantibody capture
p3451
sVabbreviation
p3452
VIL_6RA
p3453
sV_id
p3454
VPROTE.None.CVD.IL_6RA.None
p3455
sasVQ9WTV1
p3456
(lp3457
(dp3458
Vcategory
p3459
VProteomics
p3460
sVsubsystem
p3461
VCVD
p3462
sVvendor
p3463
VOlink
p3464
sVname
p3465
VCHI3L1
p3466
sVmeasurement_technology
p3467
Vantibody capture
p3468
sVabbreviation
p3469
VCHI3L1
p3470
sV_id
p3471
VPROTE.None.CVD.CHI3L1.None
p3472
sasVP07339
p3473
(lp3474
g2124
asVP28325
p3475
(lp3476
(dp3477
Vcategory
p3478
VProteomics
p3479
sVsubsystem
p3480
VInflammation
p3481
sVvendor
p3482
VOlink
p3483
sVname
p3484
VCST5
p3485
sVmeasurement_technology
p3486
Vantibody capture
p3487
sVabbreviation
p3488
VCST5
p3489
sV_id
p3490
VPROTE.None.Inflammation.CST5.None
p3491
sasVP50230
p3492
(lp3493
g2717
ag2732
asVP04196
p3494
(lp3495
(dp3496
Vcategory
p3497
VProteomics
p3498
sVsubsystem
p3499
Vliver
p3500
sVvendor
p3501
VISB
p3502
sVdescription
p3503
VPlasma glycoprotein that binds a number of ligands such as heme, heparin, heparan sulfate, thrombospondin, plasminogen, and divalent metal ions. Binds heparin and heparin/glycosaminoglycans in a zinc-dependent manner. Binds heparan sulfate on the surface of liver, lung, kidney and heart endothelial cells. Binds to N-sulfated polysaccharide chains on the surface of liver endothelial cells. Inhibits rosette formation. Acts as an adapter protein and is implicated in regulating many processes such as immune complex and pathogen clearance, cell chemotaxis, cell adhesion, angiogenesis, coagulation and fibrinolysis. Mediates clearance of necrotic cells through enhancing the phagocytosis of necrotic cells in a heparan sulfate-dependent pathway. This process can be regulated by the presence of certain HRG ligands such as heparin and zinc ions. Binds to IgG subclasses of immunoglobins containing kappa and lambda light chains with different affinities regulating their clearance and inhibiting the formation of insoluble immune complexes. Tethers plasminogen to the cell surface. Binds T-cells and alters the cell morphology. Modulates angiogenesis by blocking the CD6-mediated antiangiongenic effect of thrombospondins, THBS1 and THBS2. Acts as a regulator of the vascular endothelial growth factor (VEGF) signaling pathway; inhibits endothelial cell motility by reducing VEGF-induced complex formation between PXN/paxillin and ILK/integrin-linked protein kinase and by promoting inhibition of VEGF-induced tyrosine phosphorylation of focal adhesion kinases and alpha-actinins in endothelial cells. Also plays a role in the regulation of tumor angiogenesis and tumor immune surveillance. Normalizes tumor vessels and promotes antitumor immunity by polarizing tumor-associated macrophages, leading to decreased tumor growth and metastasis.
p3504
sVmeasurement_technology
p3505
Vmass spectometry
p3506
sVabbreviation
p3507
VHRG
p3508
sVuniprot
p3509
g3494
sVpeptide
p3510
VADLFYDVEALDLESPK
p3511
sV_id
p3512
VPROTE.None.liver.HRG.ADLFYDVEALDLESPK
p3513
sVname
p3514
VHistidine-rich glycoprotein
p3515
sa(dp3516
Vcategory
p3517
VProteomics
p3518
sVsubsystem
p3519
Vliver
p3520
sVvendor
p3521
VISB
p3522
sVdescription
p3523
VPlasma glycoprotein that binds a number of ligands such as heme, heparin, heparan sulfate, thrombospondin, plasminogen, and divalent metal ions. Binds heparin and heparin/glycosaminoglycans in a zinc-dependent manner. Binds heparan sulfate on the surface of liver, lung, kidney and heart endothelial cells. Binds to N-sulfated polysaccharide chains on the surface of liver endothelial cells. Inhibits rosette formation. Acts as an adapter protein and is implicated in regulating many processes such as immune complex and pathogen clearance, cell chemotaxis, cell adhesion, angiogenesis, coagulation and fibrinolysis. Mediates clearance of necrotic cells through enhancing the phagocytosis of necrotic cells in a heparan sulfate-dependent pathway. This process can be regulated by the presence of certain HRG ligands such as heparin and zinc ions. Binds to IgG subclasses of immunoglobins containing kappa and lambda light chains with different affinities regulating their clearance and inhibiting the formation of insoluble immune complexes. Tethers plasminogen to the cell surface. Binds T-cells and alters the cell morphology. Modulates angiogenesis by blocking the CD6-mediated antiangiongenic effect of thrombospondins, THBS1 and THBS2. Acts as a regulator of the vascular endothelial growth factor (VEGF) signaling pathway; inhibits endothelial cell motility by reducing VEGF-induced complex formation between PXN/paxillin and ILK/integrin-linked protein kinase and by promoting inhibition of VEGF-induced tyrosine phosphorylation of focal adhesion kinases and alpha-actinins in endothelial cells. Also plays a role in the regulation of tumor angiogenesis and tumor immune surveillance. Normalizes tumor vessels and promotes antitumor immunity by polarizing tumor-associated macrophages, leading to decreased tumor growth and metastasis.
p3524
sVmeasurement_technology
p3525
Vmass spectometry
p3526
sVabbreviation
p3527
VHRG
p3528
sVuniprot
p3529
VP04196
p3530
sVpeptide
p3531
VDSPVLIDFFEDTER
p3532
sV_id
p3533
VPROTE.None.liver.HRG.DSPVLIDFFEDTER
p3534
sVname
p3535
VHistidine-rich glycoprotein
p3536
sasVP13232
p3537
(lp3538
g1380
asVP02778
p3539
(lp3540
g775
asVQ66H70
p3541
(lp3542
g2285
asVP13236
p3543
(lp3544
g2717
ag2732
asVQ9GZV9
p3545
(lp3546
g1905
ag1920
asVP62736
p3547
(lp3548
(dp3549
Vcategory
p3550
VProteomics
p3551
sVsubsystem
p3552
Vheart
p3553
sVvendor
p3554
VISB
p3555
sVdescription
p3556
VActins are highly conserved proteins that are involved in various types of cell motility and are ubiquitously expressed in all eukaryotic cells.
p3557
sVmeasurement_technology
p3558
Vmass spectometry
p3559
sVabbreviation
p3560
VACTA2
p3561
sVuniprot
p3562
g3547
sVpeptide
p3563
VDSYVGDEAQSK
p3564
sV_id
p3565
VPROTE.None.heart.ACTA2.DSYVGDEAQSK
p3566
sVname
p3567
VActin, aortic smooth muscle
p3568
sa(dp3569
Vcategory
p3570
VProteomics
p3571
sVsubsystem
p3572
Vheart
p3573
sVvendor
p3574
VISB
p3575
sVdescription
p3576
VActins are highly conserved proteins that are involved in various types of cell motility and are ubiquitously expressed in all eukaryotic cells.
p3577
sVmeasurement_technology
p3578
Vmass spectometry
p3579
sVabbreviation
p3580
VACTA2
p3581
sVuniprot
p3582
VP62736
p3583
sVpeptide
p3584
VIIAPPER
p3585
sV_id
p3586
VPROTE.None.heart.ACTA2.IIAPPER
p3587
sVname
p3588
VActin, aortic smooth muscle
p3589
sasVP04117
p3590
(lp3591
g2225
asVP09238
p3592
(lp3593
g1239
ag1254
asVP09237
p3594
(lp3595
g3136
asVP20096
p3596
(lp3597
g1397
ag1412
asVP97636
p3598
(lp3599
g2374
ag2389
asVP19878
p3600
(lp3601
(dp3602
Vcategory
p3603
VProteomics
p3604
sVsubsystem
p3605
Vwbc
p3606
sVvendor
p3607
VISB
p3608
sVdescription
p3609
VNCF2, NCF1, and a membrane bound cytochrome b558 are required for activation of the latent NADPH oxidase (necessary for superoxide production).
p3610
sVmeasurement_technology
p3611
Vmass spectometry
p3612
sVabbreviation
p3613
VNCF2
p3614
sVuniprot
p3615
g3600
sVpeptide
p3616
VVLFGFVPETK
p3617
sV_id
p3618
VPROTE.None.wbc.NCF2.VLFGFVPETK
p3619
sVname
p3620
VNeutrophil cytosol factor 2
p3621
sasVO94985
p3622
(lp3623
(dp3624
Vcategory
p3625
VProteomics
p3626
sVsubsystem
p3627
Vbrain
p3628
sVvendor
p3629
VISB
p3630
sVdescription
p3631
V Induces KLC1 association with vesicles and functions as a cargo in axonal anterograde transport. Complex formation with APBA2 and APP, stabilizes APP metabolism and enhances APBA2- mediated suppression of beta-APP40 secretion, due to the retardation of intracellular APP maturation. In complex with APBA2 and C99, a C-terminal APP fragment, abolishes C99 interaction with PSEN1 and thus APP C99 cleavage by gamma-secretase, most probably through stabilization of the direct interaction between APBA2 and APP. The intracellular fragment AlcICD suppresses APBB1-dependent transac [...] (981 aa)
p3632
sVmeasurement_technology
p3633
Vmass spectometry
p3634
sVabbreviation
p3635
VCLSTN1
p3636
sVuniprot
p3637
g3622
sVpeptide
p3638
VAASEFESSEGVFLFPELR
p3639
sV_id
p3640
VPROTE.None.brain.CLSTN1.AASEFESSEGVFLFPELR
p3641
sVname
p3642
Vcalsyntenin 1
p3643
sasVP23363
p3644
(lp3645
g1656
asVQ13007
p3646
(lp3647
g656
asVP34960
p3648
(lp3649
g1673
asVO89093
p3650
(lp3651
g1707
ag1722
asVP12850
p3652
(lp3653
g2685
ag2700
asVO35251
p3654
(lp3655
g2991
asVQ62386
p3656
(lp3657
g2412
asVP16612
p3658
(lp3659
g675
ag690
asVP24394
p3660
(lp3661
(dp3662
Vcategory
p3663
VProteomics
p3664
sVsubsystem
p3665
Vwbc
p3666
sVvendor
p3667
VISB
p3668
sVdescription
p3669
VReceptor for both interleukin 4 and interleukin 13. Couples to the JAK1/2/3-STAT6 pathway. The IL4 response is involved in promoting Th2 differentiation. The IL4/IL13 responses are involved in regulating IgE production and, chemokine and mucus production at sites of allergic inflammation. In certain cell types, can signal through activation of insulin receptor substrates, IRS1/IRS2.
p3670
sVmeasurement_technology
p3671
Vmass spectometry
p3672
sVabbreviation
p3673
VIL4R
p3674
sVuniprot
p3675
g3660
sVpeptide
p3676
VIYNVTYLEPSLR
p3677
sV_id
p3678
VPROTE.None.wbc.IL4R.IYNVTYLEPSLR
p3679
sVname
p3680
VInterleukin-4 receptor subunit alpha
p3681
sasVO35903
p3682
(lp3683
g2143
asVP07522
p3684
(lp3685
g2555
asVP80162
p3686
(lp3687
g1739
ag1754
asVP00740
p3688
(lp3689
(dp3690
Vcategory
p3691
VProteomics
p3692
sVsubsystem
p3693
Vliver
p3694
sVvendor
p3695
VISB
p3696
sVdescription
p3697
VFactor IX is a vitamin K-dependent plasma protein that participates in the intrinsic pathway of blood coagulation by converting factor X to its active form in the presence of Ca2+ ions, phospholipids, and factor VIIIa.
p3698
sVmeasurement_technology
p3699
Vmass spectometry
p3700
sVabbreviation
p3701
VF9
p3702
sVuniprot
p3703
g3688
sVpeptide
p3704
VSALVLQYLR
p3705
sV_id
p3706
VPROTE.None.liver.F9.SALVLQYLR
p3707
sVname
p3708
VCoagulation factor IX
p3709
sa(dp3710
Vcategory
p3711
VProteomics
p3712
sVsubsystem
p3713
Vliver
p3714
sVvendor
p3715
VISB
p3716
sVdescription
p3717
VFactor IX is a vitamin K-dependent plasma protein that participates in the intrinsic pathway of blood coagulation by converting factor X to its active form in the presence of Ca2+ ions, phospholipids, and factor VIIIa.
p3718
sVmeasurement_technology
p3719
Vmass spectometry
p3720
sVabbreviation
p3721
VF9
p3722
sVuniprot
p3723
VP00740
p3724
sVpeptide
p3725
VSCEPAVPFPCGR
p3726
sV_id
p3727
VPROTE.None.liver.F9.SCEPAVPFPCGR
p3728
sVname
p3729
VCoagulation factor IX
p3730
sasVQ01484
p3731
(lp3732
(dp3733
Vcategory
p3734
VProteomics
p3735
sVsubsystem
p3736
Vheart
p3737
sVvendor
p3738
VISB
p3739
sVdescription
p3740
V Attaches integral membrane proteins to cytoskeletal elements. Also binds to cytoskeletal proteins. Required for coordinate assembly of Na/Ca exchanger, Na/K ATPase and InsP3 receptor at sarcoplasmic reticulum sites in cardiomyocytes. Required for the coordinated expression of the Na/K ATPase, Na/Ca exchanger and beta-2-spectrin (SPTBN1) in the inner segment of rod photoreceptors. Required for expression and targeting of SPTBN1 in neonatal cardiomyocytes and for the regulation of neonatal cardiomyocyte contraction rate (3957 aa)
p3741
sVmeasurement_technology
p3742
Vmass spectometry
p3743
sVabbreviation
p3744
VANK2
p3745
sVuniprot
p3746
g3731
sVpeptide
p3747
VGLVHQAICNLNITLPIYTK
p3748
sV_id
p3749
VPROTE.None.heart.ANK2.GLVHQAICNLNITLPIYTK
p3750
sVname
p3751
Vankyrin 2, neuronal
p3752
sasVQ07011
p3753
(lp3754
g2845
asVP04351
p3755
(lp3756
g1022
asVP00450
p3757
(lp3758
(dp3759
Vcategory
p3760
VProteomics
p3761
sVsubsystem
p3762
Vliver
p3763
sVvendor
p3764
VISB
p3765
sVdescription
p3766
VCeruloplasmin is a blue, copper-binding (6-7 atoms per molecule) glycoprotein. It has ferroxidase activity oxidizing Fe2+ to Fe3+ without releasing radical oxygen species. It is involved in iron transport across the cell membrane. Provides Cu2+ ions for the ascorbate-mediated deaminase degradation of the heparan sulfate chains of GPC1. May also play a role in fetal lung development or pulmonary antioxidant defense (By similarity).
p3767
sVmeasurement_technology
p3768
Vmass spectometry
p3769
sVabbreviation
p3770
VCP
p3771
sVuniprot
p3772
g3757
sVpeptide
p3773
VALYLQYTDETFR
p3774
sV_id
p3775
VPROTE.None.liver.CP.ALYLQYTDETFR
p3776
sVname
p3777
VCeruloplasmin
p3778
sa(dp3779
Vcategory
p3780
VProteomics
p3781
sVsubsystem
p3782
Vliver
p3783
sVvendor
p3784
VISB
p3785
sVdescription
p3786
VCeruloplasmin is a blue, copper-binding (6-7 atoms per molecule) glycoprotein. It has ferroxidase activity oxidizing Fe2+ to Fe3+ without releasing radical oxygen species. It is involved in iron transport across the cell membrane. Provides Cu2+ ions for the ascorbate-mediated deaminase degradation of the heparan sulfate chains of GPC1. May also play a role in fetal lung development or pulmonary antioxidant defense (By similarity).
p3787
sVmeasurement_technology
p3788
Vmass spectometry
p3789
sVabbreviation
p3790
VCP
p3791
sVuniprot
p3792
VP00450
p3793
sVpeptide
p3794
VTTIEKPVWLGFLGPIIK
p3795
sV_id
p3796
VPROTE.None.liver.CP.TTIEKPVWLGFLGPIIK
p3797
sVname
p3798
VCeruloplasmin
p3799
sasVO70239
p3800
(lp3801
g724
asVQ14005
p3802
(lp3803
g2826
asVP09341
p3804
(lp3805
g2685
ag2700
asVQ08481
p3806
(lp3807
g1601
asVQ8BSU2
p3808
(lp3809
g52
asVP20851
p3810
(lp3811
(dp3812
Vcategory
p3813
VProteomics
p3814
sVsubsystem
p3815
Vliver
p3816
sVvendor
p3817
VISB
p3818
sVdescription
p3819
V Controls the classical pathway of complement activation. It binds as a cofactor to C3b/C4b inactivator (C3bINA), which then hydrolyzes the complement fragment C4b. It also accelerates the degradation of the C4bC2a complex (C3 convertase) by dissociating the complement fragment C2a. It also interacts with anticoagulant protein S and with serum amyloid P component. The beta chain binds protein S (252 aa)
p3820
sVmeasurement_technology
p3821
Vmass spectometry
p3822
sVabbreviation
p3823
VC4BPB
p3824
sVuniprot
p3825
g3810
sVpeptide
p3826
VALLAFQESK
p3827
sV_id
p3828
VPROTE.None.liver.C4BPB.ALLAFQESK
p3829
sVname
p3830
Vcomplement component 4 binding protein, beta
p3831
sasVQ06175
p3832
(lp3833
g1141
asVP04180
p3834
(lp3835
(dp3836
Vcategory
p3837
VProteomics
p3838
sVsubsystem
p3839
Vliver
p3840
sVvendor
p3841
VISB
p3842
sVdescription
p3843
VCentral enzyme in the extracellular metabolism of plasma lipoproteins. Among other substrates it esterifies the free cholesterol transported in plasma lipoproteins (440 aa)
p3844
sVmeasurement_technology
p3845
Vmass spectometry
p3846
sVabbreviation
p3847
VLCAT
p3848
sVuniprot
p3849
g3834
sVpeptide
p3850
VSSGLVSNAPGVQIR
p3851
sV_id
p3852
VPROTE.None.liver.LCAT.SSGLVSNAPGVQIR
p3853
sVname
p3854
Vlecithin-cholesterol acyltransferase
p3855
sa(dp3856
Vcategory
p3857
VProteomics
p3858
sVsubsystem
p3859
Vliver
p3860
sVvendor
p3861
VISB
p3862
sVdescription
p3863
VCentral enzyme in the extracellular metabolism of plasma lipoproteins. Among other substrates it esterifies the free cholesterol transported in plasma lipoproteins (440 aa)
p3864
sVmeasurement_technology
p3865
Vmass spectometry
p3866
sVabbreviation
p3867
VLCAT
p3868
sVuniprot
p3869
VP04180
p3870
sVpeptide
p3871
VTYSVEYLDSSK
p3872
sV_id
p3873
VPROTE.None.liver.LCAT.TYSVEYLDSSK
p3874
sVname
p3875
Vlecithin-cholesterol acyltransferase
p3876
sasVP42203
p3877
(lp3878
g2304
asVP35858
p3879
(lp3880
(dp3881
Vcategory
p3882
VProteomics
p3883
sVsubsystem
p3884
Vliver
p3885
sVvendor
p3886
VISB
p3887
sVdescription
p3888
V Involved in protein-protein interactions that result in protein complexes, receptor-ligand binding or cell adhesion (605 aa)
p3889
sVmeasurement_technology
p3890
Vmass spectometry
p3891
sVabbreviation
p3892
VIGFALS
p3893
sVuniprot
p3894
g3879
sVpeptide
p3895
VDFALQNPSAVPR
p3896
sV_id
p3897
VPROTE.None.liver.IGFALS.DFALQNPSAVPR
p3898
sVname
p3899
Vinsulin-like growth factor binding protein, acid labile subunit
p3900
sa(dp3901
Vcategory
p3902
VProteomics
p3903
sVsubsystem
p3904
Vliver
p3905
sVvendor
p3906
VISB
p3907
sVdescription
p3908
V Involved in protein-protein interactions that result in protein complexes, receptor-ligand binding or cell adhesion (605 aa)
p3909
sVmeasurement_technology
p3910
Vmass spectometry
p3911
sVabbreviation
p3912
VIGFALS
p3913
sVuniprot
p3914
VP35858
p3915
sVpeptide
p3916
VLAYLQPALFSGLAELR
p3917
sV_id
p3918
VPROTE.None.liver.IGFALS.LAYLQPALFSGLAELR
p3919
sVname
p3920
Vinsulin-like growth factor binding protein, acid labile subunit
p3921
sasVQ8IXJ6
p3922
(lp3923
g1162
ag1177
asVP16599
p3924
(lp3925
g1329
asVP12931
p3926
(lp3927
g707
asVP53347
p3928
(lp3929
g1290
asVQ6AYE8
p3930
(lp3931
g2666
asVP51671
p3932
(lp3933
g1947
asVP06727
p3934
(lp3935
(dp3936
Vcategory
p3937
VProteomics
p3938
sVsubsystem
p3939
Vliver
p3940
sVvendor
p3941
VISB
p3942
sVdescription
p3943
VMay have a role in chylomicrons and VLDL secretion and catabolism. Required for efficient activation of lipoprotein lipase by ApoC-II
p3944
sVmeasurement_technology
p3945
Vmass spectometry
p3946
sVabbreviation
p3947
VAPOA4
p3948
sVuniprot
p3949
g3934
sVpeptide
p3950
VLGPHAGDVEGHLSFLEK
p3951
sV_id
p3952
VPROTE.None.liver.APOA4.LGPHAGDVEGHLSFLEK
p3953
sVname
p3954
Vapolipoprotein A-IV
p3955
sa(dp3956
Vcategory
p3957
VProteomics
p3958
sVsubsystem
p3959
Vliver
p3960
sVvendor
p3961
VISB
p3962
sVdescription
p3963
VMay have a role in chylomicrons and VLDL secretion and catabolism. Required for efficient activation of lipoprotein lipase by ApoC-II
p3964
sVmeasurement_technology
p3965
Vmass spectometry
p3966
sVabbreviation
p3967
VAPOA4
p3968
sVuniprot
p3969
VP06727
p3970
sVpeptide
p3971
VSELTQQLNALFQDK
p3972
sV_id
p3973
VPROTE.None.liver.APOA4.SELTQQLNALFQDK
p3974
sVname
p3975
Vapolipoprotein A-IV
p3976
sasVP39900
p3977
(lp3978
g1673
asVP78556
p3979
(lp3980
g1707
ag1722
asVQ13103
p3981
(lp3982
(dp3983
Vcategory
p3984
VProteomics
p3985
sVsubsystem
p3986
Vliver
p3987
sVvendor
p3988
VISB
p3989
sVdescription
p3990
VCould coordinate an aspect of bone turnover.
p3991
sVmeasurement_technology
p3992
Vmass spectometry
p3993
sVabbreviation
p3994
VSPP2
p3995
sVuniprot
p3996
g3981
sVpeptide
p3997
VDYYVSTAVCR
p3998
sV_id
p3999
VPROTE.None.liver.SPP2.DYYVSTAVCR
p4000
sVname
p4001
VSecreted phosphoprotein 24
p4002
sa(dp4003
Vcategory
p4004
VProteomics
p4005
sVsubsystem
p4006
Vliver
p4007
sVvendor
p4008
VISB
p4009
sVdescription
p4010
VCould coordinate an aspect of bone turnover.
p4011
sVmeasurement_technology
p4012
Vmass spectometry
p4013
sVabbreviation
p4014
VSPP2
p4015
sVuniprot
p4016
VQ13103
p4017
sVpeptide
p4018
VVNSQSLSPYLFR
p4019
sV_id
p4020
VPROTE.None.liver.SPP2.VNSQSLSPYLFR
p4021
sVname
p4022
VSecreted phosphoprotein 24
p4023
sasVP47212
p4024
(lp4025
g267
asVQ13651
p4026
(lp4027
g3351
asVQ5T4W7
p4028
(lp4029
g2666
asVO95750
p4030
(lp4031
(dp4032
Vcategory
p4033
VProteomics
p4034
sVsubsystem
p4035
VInflammation
p4036
sVvendor
p4037
VOlink
p4038
sVname
p4039
VFGF_19
p4040
sVmeasurement_technology
p4041
Vantibody capture
p4042
sVabbreviation
p4043
VFGF_19
p4044
sV_id
p4045
VPROTE.None.Inflammation.FGF_19.None
p4046
sasVQ9UHF4
p4047
(lp4048
g1805
asVO14625
p4049
(lp4050
g3210
asVP13725
p4051
(lp4052
g1290
asVP16284
p4053
(lp4054
g1601
asVO00533
p4055
(lp4056
(dp4057
Vcategory
p4058
VProteomics
p4059
sVsubsystem
p4060
Vbrain
p4061
sVvendor
p4062
VISB
p4063
sVdescription
p4064
VExtracellular matrix and cell adhesion protein that plays a role in nervous system development and in synaptic plasticity. Both soluble and membranous forms promote neurite outgrowth of cerebellar and hippocampal neurons and suppress neuronal cell death. Plays a role in neuronal positioning of pyramidal neurons and in regulation of both the number of interneurons and the efficacy of GABAergic synapses. May play a role in regulating cell migration in nerve regeneration and cortical development. Potentiates integrin-dep [...] (1224 aa)
p4065
sVmeasurement_technology
p4066
Vmass spectometry
p4067
sVabbreviation
p4068
VCHL1
p4069
sVuniprot
p4070
g4055
sVpeptide
p4071
VVIAVNEVGR
p4072
sV_id
p4073
VPROTE.None.brain.CHL1.VIAVNEVGR
p4074
sVname
p4075
Vcell adhesion molecule with homology to L1CAM (close homolog of L1)
p4076
sasVQ99748
p4077
(lp4078
g849
asVP35225
p4079
(lp4080
g2304
asVQ99P87
p4081
(lp4082
g86
asVQ9QYY7
p4083
(lp4084
g413
asVQ8JZQ0
p4085
(lp4086
g3
ag18
asVP36222
p4087
(lp4088
g3458
asVQ92876
p4089
(lp4090
(dp4091
Vcategory
p4092
VProteomics
p4093
sVsubsystem
p4094
VCVD
p4095
sVvendor
p4096
VOlink
p4097
sVname
p4098
VKLK6
p4099
sVmeasurement_technology
p4100
Vantibody capture
p4101
sVabbreviation
p4102
VKLK6
p4103
sV_id
p4104
VPROTE.None.CVD.KLK6.None
p4105
sasVO15169
p4106
(lp4107
g724
asVQ9JIE6
p4108
(lp4109
g1986
asVQ9UKP3
p4110
(lp4111
g2187
as.